ARM GAS  C:\Users\Admin\AppData\Local\Temp\ccHULMPJ.s 			page 1


   1              		.syntax unified
   2              		.cpu cortex-m4
   3              		.eabi_attribute 27, 1
   4              		.fpu fpv4-sp-d16
   5              		.eabi_attribute 20, 1
   6              		.eabi_attribute 21, 1
   7              		.eabi_attribute 23, 3
   8              		.eabi_attribute 24, 1
   9              		.eabi_attribute 25, 1
  10              		.eabi_attribute 26, 1
  11              		.eabi_attribute 30, 1
  12              		.eabi_attribute 34, 1
  13              		.eabi_attribute 18, 4
  14              		.thumb
  15              		.syntax unified
  16              		.file	"cy_ble_ias.c"
  17              		.text
  18              	.Ltext0:
  19              		.cfi_sections	.debug_frame
  20              		.section	.text.Cy_BLE_IASS_WriteCmdEventHandler,"ax",%progbits
  21              		.align	2
  22              		.thumb
  23              		.thumb_func
  24              		.type	Cy_BLE_IASS_WriteCmdEventHandler, %function
  25              	Cy_BLE_IASS_WriteCmdEventHandler:
  26              	.LFB251:
  27              		.file 1 "Generated_Source\\PSoC6\\pdl\\middleware\\ble\\cy_ble_ias.c"
   1:Generated_Source\PSoC6\pdl\middleware\ble/cy_ble_ias.c **** /***************************************************************************//**
   2:Generated_Source\PSoC6\pdl\middleware\ble/cy_ble_ias.c **** * \file cy_ble_ias.c
   3:Generated_Source\PSoC6\pdl\middleware\ble/cy_ble_ias.c **** * \version 2.20
   4:Generated_Source\PSoC6\pdl\middleware\ble/cy_ble_ias.c **** *
   5:Generated_Source\PSoC6\pdl\middleware\ble/cy_ble_ias.c **** * \brief
   6:Generated_Source\PSoC6\pdl\middleware\ble/cy_ble_ias.c **** *  This file contains the source code for the Immediate Alert Service.
   7:Generated_Source\PSoC6\pdl\middleware\ble/cy_ble_ias.c **** *
   8:Generated_Source\PSoC6\pdl\middleware\ble/cy_ble_ias.c **** ********************************************************************************
   9:Generated_Source\PSoC6\pdl\middleware\ble/cy_ble_ias.c **** * \copyright
  10:Generated_Source\PSoC6\pdl\middleware\ble/cy_ble_ias.c **** * Copyright 2017-2018, Cypress Semiconductor Corporation.  All rights reserved.
  11:Generated_Source\PSoC6\pdl\middleware\ble/cy_ble_ias.c **** * You may use this file only in accordance with the license, terms, conditions,
  12:Generated_Source\PSoC6\pdl\middleware\ble/cy_ble_ias.c **** * disclaimers, and limitations in the end user license agreement accompanying
  13:Generated_Source\PSoC6\pdl\middleware\ble/cy_ble_ias.c **** * the software package with which this file was provided.
  14:Generated_Source\PSoC6\pdl\middleware\ble/cy_ble_ias.c **** *******************************************************************************/
  15:Generated_Source\PSoC6\pdl\middleware\ble/cy_ble_ias.c **** 
  16:Generated_Source\PSoC6\pdl\middleware\ble/cy_ble_ias.c **** 
  17:Generated_Source\PSoC6\pdl\middleware\ble/cy_ble_ias.c **** #include "cy_ble_event_handler.h"
  18:Generated_Source\PSoC6\pdl\middleware\ble/cy_ble_ias.c **** 
  19:Generated_Source\PSoC6\pdl\middleware\ble/cy_ble_ias.c **** /* C binding of definitions if building with C++ compiler */
  20:Generated_Source\PSoC6\pdl\middleware\ble/cy_ble_ias.c **** #ifdef __cplusplus
  21:Generated_Source\PSoC6\pdl\middleware\ble/cy_ble_ias.c **** extern "C" {
  22:Generated_Source\PSoC6\pdl\middleware\ble/cy_ble_ias.c **** #endif /* __cplusplus */
  23:Generated_Source\PSoC6\pdl\middleware\ble/cy_ble_ias.c **** 
  24:Generated_Source\PSoC6\pdl\middleware\ble/cy_ble_ias.c **** #if (CY_BLE_MODE_PROFILE && defined(CY_BLE_IAS))
  25:Generated_Source\PSoC6\pdl\middleware\ble/cy_ble_ias.c **** 
  26:Generated_Source\PSoC6\pdl\middleware\ble/cy_ble_ias.c **** #ifdef CY_BLE_IAS_SERVER
  27:Generated_Source\PSoC6\pdl\middleware\ble/cy_ble_ias.c **** static cy_ble_callback_t Cy_BLE_IAS_ApplCallback = NULL;
  28:Generated_Source\PSoC6\pdl\middleware\ble/cy_ble_ias.c **** #endif /* (CY_BLE_IAS_SERVER) */
  29:Generated_Source\PSoC6\pdl\middleware\ble/cy_ble_ias.c ****     
  30:Generated_Source\PSoC6\pdl\middleware\ble/cy_ble_ias.c **** #ifdef CY_BLE_IAS_CLIENT
ARM GAS  C:\Users\Admin\AppData\Local\Temp\ccHULMPJ.s 			page 2


  31:Generated_Source\PSoC6\pdl\middleware\ble/cy_ble_ias.c **** /* IAS Center Service characteristics GATT DB handles structure */
  32:Generated_Source\PSoC6\pdl\middleware\ble/cy_ble_ias.c **** cy_stc_ble_iasc_t cy_ble_iasc[CY_BLE_GATTC_COUNT];
  33:Generated_Source\PSoC6\pdl\middleware\ble/cy_ble_ias.c **** #endif /* (CY_BLE_IAS_CLIENT) */
  34:Generated_Source\PSoC6\pdl\middleware\ble/cy_ble_ias.c **** 
  35:Generated_Source\PSoC6\pdl\middleware\ble/cy_ble_ias.c **** /* The pointer on global BLE IAS Config structure */
  36:Generated_Source\PSoC6\pdl\middleware\ble/cy_ble_ias.c **** cy_stc_ble_ias_config_t *cy_ble_iasConfigPtr = NULL;
  37:Generated_Source\PSoC6\pdl\middleware\ble/cy_ble_ias.c **** 
  38:Generated_Source\PSoC6\pdl\middleware\ble/cy_ble_ias.c **** /***************************************
  39:Generated_Source\PSoC6\pdl\middleware\ble/cy_ble_ias.c **** * Private Function Prototypes
  40:Generated_Source\PSoC6\pdl\middleware\ble/cy_ble_ias.c **** ***************************************/
  41:Generated_Source\PSoC6\pdl\middleware\ble/cy_ble_ias.c **** #ifdef CY_BLE_IAS_SERVER
  42:Generated_Source\PSoC6\pdl\middleware\ble/cy_ble_ias.c **** static void Cy_BLE_IASS_DisconnectEventHandler(void);
  43:Generated_Source\PSoC6\pdl\middleware\ble/cy_ble_ias.c **** static void Cy_BLE_IASS_WriteCmdEventHandler(cy_stc_ble_gatts_write_cmd_req_param_t *eventParam);
  44:Generated_Source\PSoC6\pdl\middleware\ble/cy_ble_ias.c **** #endif /* (CY_BLE_IAS_SERVER) */
  45:Generated_Source\PSoC6\pdl\middleware\ble/cy_ble_ias.c **** 
  46:Generated_Source\PSoC6\pdl\middleware\ble/cy_ble_ias.c **** #ifdef CY_BLE_IAS_CLIENT
  47:Generated_Source\PSoC6\pdl\middleware\ble/cy_ble_ias.c **** static void Cy_BLE_IASC_DiscoverCharacteristicsEventHandler(cy_stc_ble_disc_char_info_t *discCharIn
  48:Generated_Source\PSoC6\pdl\middleware\ble/cy_ble_ias.c **** static void Cy_BLE_IASC_GetCharRange(cy_stc_ble_disc_range_info_t *charRangeInfo);
  49:Generated_Source\PSoC6\pdl\middleware\ble/cy_ble_ias.c **** #endif /* (CY_BLE_IAS_CLIENT) */
  50:Generated_Source\PSoC6\pdl\middleware\ble/cy_ble_ias.c **** static cy_en_ble_gatt_err_code_t Cy_BLE_IAS_EventHandler(uint32_t eventCode, void *eventParam);
  51:Generated_Source\PSoC6\pdl\middleware\ble/cy_ble_ias.c **** 
  52:Generated_Source\PSoC6\pdl\middleware\ble/cy_ble_ias.c **** 
  53:Generated_Source\PSoC6\pdl\middleware\ble/cy_ble_ias.c **** /******************************************************************************
  54:Generated_Source\PSoC6\pdl\middleware\ble/cy_ble_ias.c **** * Function Name: Cy_BLE_IAS_Init
  55:Generated_Source\PSoC6\pdl\middleware\ble/cy_ble_ias.c **** ***************************************************************************//**
  56:Generated_Source\PSoC6\pdl\middleware\ble/cy_ble_ias.c **** *
  57:Generated_Source\PSoC6\pdl\middleware\ble/cy_ble_ias.c **** *  This function initializes the Immediate Alert Service.
  58:Generated_Source\PSoC6\pdl\middleware\ble/cy_ble_ias.c **** *
  59:Generated_Source\PSoC6\pdl\middleware\ble/cy_ble_ias.c **** *  \param config: Configuration structure for the Immediate Alert Service.
  60:Generated_Source\PSoC6\pdl\middleware\ble/cy_ble_ias.c **** *
  61:Generated_Source\PSoC6\pdl\middleware\ble/cy_ble_ias.c **** *  \return
  62:Generated_Source\PSoC6\pdl\middleware\ble/cy_ble_ias.c **** *  cy_en_ble_api_result_t : Return value indicates if the function succeeded or
  63:Generated_Source\PSoC6\pdl\middleware\ble/cy_ble_ias.c **** *  failed. The following are possible error codes.
  64:Generated_Source\PSoC6\pdl\middleware\ble/cy_ble_ias.c **** *
  65:Generated_Source\PSoC6\pdl\middleware\ble/cy_ble_ias.c **** *   Error Codes                             | Description
  66:Generated_Source\PSoC6\pdl\middleware\ble/cy_ble_ias.c **** *   ------------                            | -----------
  67:Generated_Source\PSoC6\pdl\middleware\ble/cy_ble_ias.c **** *   CY_BLE_SUCCESS                          | The function completed successfully.
  68:Generated_Source\PSoC6\pdl\middleware\ble/cy_ble_ias.c **** *   CY_BLE_ERROR_INVALID_PARAMETER          | On specifying NULL as input parameter
  69:Generated_Source\PSoC6\pdl\middleware\ble/cy_ble_ias.c **** *   CY_BLE_ERROR_MEMORY_ALLOCATION_FAILED   | Buffer overflow in the registration callback.
  70:Generated_Source\PSoC6\pdl\middleware\ble/cy_ble_ias.c **** *
  71:Generated_Source\PSoC6\pdl\middleware\ble/cy_ble_ias.c **** ******************************************************************************/
  72:Generated_Source\PSoC6\pdl\middleware\ble/cy_ble_ias.c **** cy_en_ble_api_result_t Cy_BLE_IAS_Init(cy_stc_ble_ias_config_t *config)
  73:Generated_Source\PSoC6\pdl\middleware\ble/cy_ble_ias.c **** {
  74:Generated_Source\PSoC6\pdl\middleware\ble/cy_ble_ias.c ****     cy_en_ble_api_result_t apiResult;
  75:Generated_Source\PSoC6\pdl\middleware\ble/cy_ble_ias.c **** 
  76:Generated_Source\PSoC6\pdl\middleware\ble/cy_ble_ias.c ****     if(config == NULL)
  77:Generated_Source\PSoC6\pdl\middleware\ble/cy_ble_ias.c ****     {
  78:Generated_Source\PSoC6\pdl\middleware\ble/cy_ble_ias.c ****         apiResult = CY_BLE_ERROR_INVALID_PARAMETER;
  79:Generated_Source\PSoC6\pdl\middleware\ble/cy_ble_ias.c ****     }
  80:Generated_Source\PSoC6\pdl\middleware\ble/cy_ble_ias.c ****     else
  81:Generated_Source\PSoC6\pdl\middleware\ble/cy_ble_ias.c ****     {
  82:Generated_Source\PSoC6\pdl\middleware\ble/cy_ble_ias.c ****         /* Registers a pointer to config structure */
  83:Generated_Source\PSoC6\pdl\middleware\ble/cy_ble_ias.c ****         cy_ble_iasConfigPtr = config;
  84:Generated_Source\PSoC6\pdl\middleware\ble/cy_ble_ias.c **** 
  85:Generated_Source\PSoC6\pdl\middleware\ble/cy_ble_ias.c ****         /* Registers Event Handler for the IAS Service */
  86:Generated_Source\PSoC6\pdl\middleware\ble/cy_ble_ias.c ****         apiResult = Cy_BLE_RegisterServiceEventHandler(&Cy_BLE_IAS_EventHandler);
  87:Generated_Source\PSoC6\pdl\middleware\ble/cy_ble_ias.c ****         
ARM GAS  C:\Users\Admin\AppData\Local\Temp\ccHULMPJ.s 			page 3


  88:Generated_Source\PSoC6\pdl\middleware\ble/cy_ble_ias.c ****     #ifdef CY_BLE_IAS_SERVER
  89:Generated_Source\PSoC6\pdl\middleware\ble/cy_ble_ias.c ****         /* Registers a callback function via config structure */
  90:Generated_Source\PSoC6\pdl\middleware\ble/cy_ble_ias.c ****         if(cy_ble_iasConfigPtr->callbackFunc != NULL)
  91:Generated_Source\PSoC6\pdl\middleware\ble/cy_ble_ias.c ****         {
  92:Generated_Source\PSoC6\pdl\middleware\ble/cy_ble_ias.c ****             Cy_BLE_IAS_ApplCallback = cy_ble_iasConfigPtr->callbackFunc;
  93:Generated_Source\PSoC6\pdl\middleware\ble/cy_ble_ias.c ****         }
  94:Generated_Source\PSoC6\pdl\middleware\ble/cy_ble_ias.c ****     #endif /* CY_BLE_IAS_SERVER */
  95:Generated_Source\PSoC6\pdl\middleware\ble/cy_ble_ias.c ****     
  96:Generated_Source\PSoC6\pdl\middleware\ble/cy_ble_ias.c ****     #ifdef CY_BLE_IAS_CLIENT
  97:Generated_Source\PSoC6\pdl\middleware\ble/cy_ble_ias.c ****         {
  98:Generated_Source\PSoC6\pdl\middleware\ble/cy_ble_ias.c ****             uint32_t idx;
  99:Generated_Source\PSoC6\pdl\middleware\ble/cy_ble_ias.c ****             for(idx = 0u; idx < CY_BLE_GATTC_COUNT; idx++)
 100:Generated_Source\PSoC6\pdl\middleware\ble/cy_ble_ias.c ****             {
 101:Generated_Source\PSoC6\pdl\middleware\ble/cy_ble_ias.c ****                 if(cy_ble_serverInfo[idx][CY_BLE_SRVI_IAS].range.startHandle == CY_BLE_GATT_INVALID
 102:Generated_Source\PSoC6\pdl\middleware\ble/cy_ble_ias.c ****                 {
 103:Generated_Source\PSoC6\pdl\middleware\ble/cy_ble_ias.c ****                     (void)memset(&cy_ble_iasc[idx], 0, sizeof(cy_stc_ble_iasc_t));
 104:Generated_Source\PSoC6\pdl\middleware\ble/cy_ble_ias.c ****                     cy_ble_serverInfo[idx][CY_BLE_SRVI_IAS].uuid = CY_BLE_UUID_IMMEDIATE_ALERT_SERV
 105:Generated_Source\PSoC6\pdl\middleware\ble/cy_ble_ias.c ****                 }
 106:Generated_Source\PSoC6\pdl\middleware\ble/cy_ble_ias.c ****             }
 107:Generated_Source\PSoC6\pdl\middleware\ble/cy_ble_ias.c ****         }
 108:Generated_Source\PSoC6\pdl\middleware\ble/cy_ble_ias.c ****     #endif /* (CY_BLE_IAS_CLIENT) */
 109:Generated_Source\PSoC6\pdl\middleware\ble/cy_ble_ias.c ****     }
 110:Generated_Source\PSoC6\pdl\middleware\ble/cy_ble_ias.c **** 
 111:Generated_Source\PSoC6\pdl\middleware\ble/cy_ble_ias.c ****     return(apiResult);
 112:Generated_Source\PSoC6\pdl\middleware\ble/cy_ble_ias.c **** }
 113:Generated_Source\PSoC6\pdl\middleware\ble/cy_ble_ias.c **** 
 114:Generated_Source\PSoC6\pdl\middleware\ble/cy_ble_ias.c **** 
 115:Generated_Source\PSoC6\pdl\middleware\ble/cy_ble_ias.c **** #ifdef CY_BLE_IAS_SERVER
 116:Generated_Source\PSoC6\pdl\middleware\ble/cy_ble_ias.c **** 
 117:Generated_Source\PSoC6\pdl\middleware\ble/cy_ble_ias.c **** /******************************************************************************
 118:Generated_Source\PSoC6\pdl\middleware\ble/cy_ble_ias.c **** * Function Name: Cy_BLE_IAS_RegisterAttrCallback
 119:Generated_Source\PSoC6\pdl\middleware\ble/cy_ble_ias.c **** ***************************************************************************//**
 120:Generated_Source\PSoC6\pdl\middleware\ble/cy_ble_ias.c **** *
 121:Generated_Source\PSoC6\pdl\middleware\ble/cy_ble_ias.c **** *  Registers callback function for service-specific attribute operations.
 122:Generated_Source\PSoC6\pdl\middleware\ble/cy_ble_ias.c **** *  Service specific write requests from peer device will not be handled with
 123:Generated_Source\PSoC6\pdl\middleware\ble/cy_ble_ias.c **** *  unregistered callback function.
 124:Generated_Source\PSoC6\pdl\middleware\ble/cy_ble_ias.c **** *
 125:Generated_Source\PSoC6\pdl\middleware\ble/cy_ble_ias.c **** *  \param callbackFunc: An application layer event callback function to receive
 126:Generated_Source\PSoC6\pdl\middleware\ble/cy_ble_ias.c **** *                     events from the BLE Middleware. The definition of
 127:Generated_Source\PSoC6\pdl\middleware\ble/cy_ble_ias.c **** *                     cy_ble_callback_t for IAS Service is: \n
 128:Generated_Source\PSoC6\pdl\middleware\ble/cy_ble_ias.c **** *                     typedef void (* cy_ble_callback_t) (uint32_t eventCode,
 129:Generated_Source\PSoC6\pdl\middleware\ble/cy_ble_ias.c **** *                                                        void *eventParam)
 130:Generated_Source\PSoC6\pdl\middleware\ble/cy_ble_ias.c **** *                     * eventCode indicates the event that triggered this
 131:Generated_Source\PSoC6\pdl\middleware\ble/cy_ble_ias.c **** *                       callback (e.g. CY_BLE_EVT_IASS_NOTIFICATION_ENABLED).
 132:Generated_Source\PSoC6\pdl\middleware\ble/cy_ble_ias.c **** *                     * eventParam contains the parameters corresponding to the
 133:Generated_Source\PSoC6\pdl\middleware\ble/cy_ble_ias.c **** *                       current event. (e.g. pointer to cy_stc_ble_ias_char_value_t
 134:Generated_Source\PSoC6\pdl\middleware\ble/cy_ble_ias.c **** *                       structure that contains details of the characteristic
 135:Generated_Source\PSoC6\pdl\middleware\ble/cy_ble_ias.c **** *                       for which notification enabled event was triggered).
 136:Generated_Source\PSoC6\pdl\middleware\ble/cy_ble_ias.c **** *
 137:Generated_Source\PSoC6\pdl\middleware\ble/cy_ble_ias.c **** * \sideeffect
 138:Generated_Source\PSoC6\pdl\middleware\ble/cy_ble_ias.c **** *  The *eventParams in the callback function should not be used by the
 139:Generated_Source\PSoC6\pdl\middleware\ble/cy_ble_ias.c **** *  application once the callback function execution is finished. Otherwise
 140:Generated_Source\PSoC6\pdl\middleware\ble/cy_ble_ias.c **** *  this data may become corrupted.\n
 141:Generated_Source\PSoC6\pdl\middleware\ble/cy_ble_ias.c **** *  <b>Note</b>:
 142:Generated_Source\PSoC6\pdl\middleware\ble/cy_ble_ias.c **** *  IAS only has events for the GATT server. There are no events for the GATT
 143:Generated_Source\PSoC6\pdl\middleware\ble/cy_ble_ias.c **** *  client since the client sends data without waiting for response. Therefore
 144:Generated_Source\PSoC6\pdl\middleware\ble/cy_ble_ias.c **** *  there is no need to register a callback through Cy_BLE_IAS_RegisterAttrCallback
ARM GAS  C:\Users\Admin\AppData\Local\Temp\ccHULMPJ.s 			page 4


 145:Generated_Source\PSoC6\pdl\middleware\ble/cy_ble_ias.c **** *  for an IAS GATT client.
 146:Generated_Source\PSoC6\pdl\middleware\ble/cy_ble_ias.c **** *
 147:Generated_Source\PSoC6\pdl\middleware\ble/cy_ble_ias.c **** *  \return
 148:Generated_Source\PSoC6\pdl\middleware\ble/cy_ble_ias.c **** *  cy_en_ble_api_result_t : Return value indicates if the function succeeded or
 149:Generated_Source\PSoC6\pdl\middleware\ble/cy_ble_ias.c **** *  failed. The following are possible error codes:
 150:Generated_Source\PSoC6\pdl\middleware\ble/cy_ble_ias.c **** *
 151:Generated_Source\PSoC6\pdl\middleware\ble/cy_ble_ias.c **** *   Error Codes                             | Description
 152:Generated_Source\PSoC6\pdl\middleware\ble/cy_ble_ias.c **** *   ------------                            | -----------
 153:Generated_Source\PSoC6\pdl\middleware\ble/cy_ble_ias.c **** *   CY_BLE_SUCCESS                          | The function completed successfully.
 154:Generated_Source\PSoC6\pdl\middleware\ble/cy_ble_ias.c **** *   CY_BLE_ERROR_INVALID_OPERATION          | This operation is not permitted
 155:Generated_Source\PSoC6\pdl\middleware\ble/cy_ble_ias.c **** *
 156:Generated_Source\PSoC6\pdl\middleware\ble/cy_ble_ias.c **** ******************************************************************************/
 157:Generated_Source\PSoC6\pdl\middleware\ble/cy_ble_ias.c **** cy_en_ble_api_result_t Cy_BLE_IAS_RegisterAttrCallback(cy_ble_callback_t callbackFunc)
 158:Generated_Source\PSoC6\pdl\middleware\ble/cy_ble_ias.c **** {
 159:Generated_Source\PSoC6\pdl\middleware\ble/cy_ble_ias.c ****     cy_en_ble_api_result_t apiResult = CY_BLE_SUCCESS;
 160:Generated_Source\PSoC6\pdl\middleware\ble/cy_ble_ias.c ****     
 161:Generated_Source\PSoC6\pdl\middleware\ble/cy_ble_ias.c ****     Cy_BLE_IAS_ApplCallback = callbackFunc;
 162:Generated_Source\PSoC6\pdl\middleware\ble/cy_ble_ias.c ****     if(cy_ble_iasConfigPtr != NULL)
 163:Generated_Source\PSoC6\pdl\middleware\ble/cy_ble_ias.c ****     {
 164:Generated_Source\PSoC6\pdl\middleware\ble/cy_ble_ias.c ****         cy_ble_iasConfigPtr->callbackFunc = callbackFunc;
 165:Generated_Source\PSoC6\pdl\middleware\ble/cy_ble_ias.c ****     }
 166:Generated_Source\PSoC6\pdl\middleware\ble/cy_ble_ias.c ****     else
 167:Generated_Source\PSoC6\pdl\middleware\ble/cy_ble_ias.c ****     {
 168:Generated_Source\PSoC6\pdl\middleware\ble/cy_ble_ias.c ****         apiResult = CY_BLE_ERROR_INVALID_OPERATION;
 169:Generated_Source\PSoC6\pdl\middleware\ble/cy_ble_ias.c ****     }
 170:Generated_Source\PSoC6\pdl\middleware\ble/cy_ble_ias.c ****     
 171:Generated_Source\PSoC6\pdl\middleware\ble/cy_ble_ias.c ****     return(apiResult);
 172:Generated_Source\PSoC6\pdl\middleware\ble/cy_ble_ias.c **** }
 173:Generated_Source\PSoC6\pdl\middleware\ble/cy_ble_ias.c **** 
 174:Generated_Source\PSoC6\pdl\middleware\ble/cy_ble_ias.c **** 
 175:Generated_Source\PSoC6\pdl\middleware\ble/cy_ble_ias.c **** /******************************************************************************
 176:Generated_Source\PSoC6\pdl\middleware\ble/cy_ble_ias.c **** * Function Name: Cy_BLE_IASS_DisconnectEventHandler
 177:Generated_Source\PSoC6\pdl\middleware\ble/cy_ble_ias.c **** ***************************************************************************//**
 178:Generated_Source\PSoC6\pdl\middleware\ble/cy_ble_ias.c **** *
 179:Generated_Source\PSoC6\pdl\middleware\ble/cy_ble_ias.c **** *  Handles the Disconnection Indication Event for the Immediate Alert service.
 180:Generated_Source\PSoC6\pdl\middleware\ble/cy_ble_ias.c **** *
 181:Generated_Source\PSoC6\pdl\middleware\ble/cy_ble_ias.c **** ******************************************************************************/
 182:Generated_Source\PSoC6\pdl\middleware\ble/cy_ble_ias.c **** static void Cy_BLE_IASS_DisconnectEventHandler(void)
 183:Generated_Source\PSoC6\pdl\middleware\ble/cy_ble_ias.c **** {
 184:Generated_Source\PSoC6\pdl\middleware\ble/cy_ble_ias.c ****     uint8_t tmpAlertLevel = CY_BLE_NO_ALERT;
 185:Generated_Source\PSoC6\pdl\middleware\ble/cy_ble_ias.c **** 
 186:Generated_Source\PSoC6\pdl\middleware\ble/cy_ble_ias.c ****     /* Set alert level to "No Alert" per IAS spec */
 187:Generated_Source\PSoC6\pdl\middleware\ble/cy_ble_ias.c ****     cy_stc_ble_gatts_db_attr_val_info_t dbAttrValInfo =
 188:Generated_Source\PSoC6\pdl\middleware\ble/cy_ble_ias.c ****     {
 189:Generated_Source\PSoC6\pdl\middleware\ble/cy_ble_ias.c ****         .handleValuePair.attrHandle = cy_ble_iasConfigPtr->iass->alertLevelCharHandle,
 190:Generated_Source\PSoC6\pdl\middleware\ble/cy_ble_ias.c ****         .handleValuePair.value.len  = CY_BLE_IAS_ALERT_LEVEL_SIZE,
 191:Generated_Source\PSoC6\pdl\middleware\ble/cy_ble_ias.c ****         .offset                     = 0u,
 192:Generated_Source\PSoC6\pdl\middleware\ble/cy_ble_ias.c ****         .flags                      = CY_BLE_GATT_DB_LOCALLY_INITIATED
 193:Generated_Source\PSoC6\pdl\middleware\ble/cy_ble_ias.c ****     };
 194:Generated_Source\PSoC6\pdl\middleware\ble/cy_ble_ias.c **** 
 195:Generated_Source\PSoC6\pdl\middleware\ble/cy_ble_ias.c ****     dbAttrValInfo.handleValuePair.value.val = &tmpAlertLevel;
 196:Generated_Source\PSoC6\pdl\middleware\ble/cy_ble_ias.c **** 
 197:Generated_Source\PSoC6\pdl\middleware\ble/cy_ble_ias.c ****     (void)Cy_BLE_GATTS_WriteAttributeValueCCCD(&dbAttrValInfo);
 198:Generated_Source\PSoC6\pdl\middleware\ble/cy_ble_ias.c **** }
 199:Generated_Source\PSoC6\pdl\middleware\ble/cy_ble_ias.c **** 
 200:Generated_Source\PSoC6\pdl\middleware\ble/cy_ble_ias.c **** 
 201:Generated_Source\PSoC6\pdl\middleware\ble/cy_ble_ias.c **** /******************************************************************************
ARM GAS  C:\Users\Admin\AppData\Local\Temp\ccHULMPJ.s 			page 5


 202:Generated_Source\PSoC6\pdl\middleware\ble/cy_ble_ias.c **** * Function Name: Cy_BLE_IASS_WriteCmdEventHandler
 203:Generated_Source\PSoC6\pdl\middleware\ble/cy_ble_ias.c **** ***************************************************************************//**
 204:Generated_Source\PSoC6\pdl\middleware\ble/cy_ble_ias.c **** *
 205:Generated_Source\PSoC6\pdl\middleware\ble/cy_ble_ias.c **** *  Handles the Write Without Response Request Event for the Immediate Alert
 206:Generated_Source\PSoC6\pdl\middleware\ble/cy_ble_ias.c **** *  Service.
 207:Generated_Source\PSoC6\pdl\middleware\ble/cy_ble_ias.c **** *
 208:Generated_Source\PSoC6\pdl\middleware\ble/cy_ble_ias.c **** *  \param cy_stc_ble_gatts_write_cmd_req_param_t * eventParam: The pointer to a data structure
 209:Generated_Source\PSoC6\pdl\middleware\ble/cy_ble_ias.c **** *                                                    specified by the event.
 210:Generated_Source\PSoC6\pdl\middleware\ble/cy_ble_ias.c **** *
 211:Generated_Source\PSoC6\pdl\middleware\ble/cy_ble_ias.c **** ******************************************************************************/
 212:Generated_Source\PSoC6\pdl\middleware\ble/cy_ble_ias.c **** static void Cy_BLE_IASS_WriteCmdEventHandler(cy_stc_ble_gatts_write_cmd_req_param_t *eventParam)
 213:Generated_Source\PSoC6\pdl\middleware\ble/cy_ble_ias.c **** {
  28              		.loc 1 213 0
  29              		.cfi_startproc
  30              		@ args = 0, pretend = 0, frame = 32
  31              		@ frame_needed = 0, uses_anonymous_args = 0
  32              	.LVL0:
 214:Generated_Source\PSoC6\pdl\middleware\ble/cy_ble_ias.c ****     if(Cy_BLE_IAS_ApplCallback != NULL)
  33              		.loc 1 214 0
  34 0000 1C4B     		ldr	r3, .L6
  35 0002 1B68     		ldr	r3, [r3]
  36 0004 002B     		cmp	r3, #0
  37 0006 34D0     		beq	.L5
 215:Generated_Source\PSoC6\pdl\middleware\ble/cy_ble_ias.c ****     {
 216:Generated_Source\PSoC6\pdl\middleware\ble/cy_ble_ias.c ****         /* Check if attribute handle is handle of Alert Level characteristic of
 217:Generated_Source\PSoC6\pdl\middleware\ble/cy_ble_ias.c ****          * Immediate Alert service. */
 218:Generated_Source\PSoC6\pdl\middleware\ble/cy_ble_ias.c ****         if((cy_ble_iasConfigPtr->iass->alertLevelCharHandle == eventParam->handleValPair.attrHandle
  38              		.loc 1 218 0
  39 0008 1A4B     		ldr	r3, .L6
  40 000a 5B68     		ldr	r3, [r3, #4]
  41 000c 1B68     		ldr	r3, [r3]
  42 000e 5A88     		ldrh	r2, [r3, #2]
  43 0010 0389     		ldrh	r3, [r0, #8]
  44 0012 9A42     		cmp	r2, r3
  45 0014 2DD1     		bne	.L5
 219:Generated_Source\PSoC6\pdl\middleware\ble/cy_ble_ias.c ****            (eventParam->handleValPair.value.len == CY_BLE_IAS_ALERT_LEVEL_SIZE) &&
  46              		.loc 1 219 0 discriminator 1
  47 0016 8388     		ldrh	r3, [r0, #4]
 218:Generated_Source\PSoC6\pdl\middleware\ble/cy_ble_ias.c ****            (eventParam->handleValPair.value.len == CY_BLE_IAS_ALERT_LEVEL_SIZE) &&
  48              		.loc 1 218 0 discriminator 1
  49 0018 012B     		cmp	r3, #1
  50 001a 2AD1     		bne	.L5
 220:Generated_Source\PSoC6\pdl\middleware\ble/cy_ble_ias.c ****            (eventParam->handleValPair.value.val[0u] <= CY_BLE_HIGH_ALERT))
  51              		.loc 1 220 0
  52 001c 0368     		ldr	r3, [r0]
  53 001e 1B78     		ldrb	r3, [r3]	@ zero_extendqisi2
 219:Generated_Source\PSoC6\pdl\middleware\ble/cy_ble_ias.c ****            (eventParam->handleValPair.value.len == CY_BLE_IAS_ALERT_LEVEL_SIZE) &&
  54              		.loc 1 219 0
  55 0020 022B     		cmp	r3, #2
  56 0022 26D8     		bhi	.L5
 213:Generated_Source\PSoC6\pdl\middleware\ble/cy_ble_ias.c ****     if(Cy_BLE_IAS_ApplCallback != NULL)
  57              		.loc 1 213 0
  58 0024 10B5     		push	{r4, lr}
  59              		.cfi_def_cfa_offset 8
  60              		.cfi_offset 4, -8
  61              		.cfi_offset 14, -4
  62 0026 88B0     		sub	sp, sp, #32
ARM GAS  C:\Users\Admin\AppData\Local\Temp\ccHULMPJ.s 			page 6


  63              		.cfi_def_cfa_offset 40
  64 0028 0446     		mov	r4, r0
  65              	.LBB2:
 221:Generated_Source\PSoC6\pdl\middleware\ble/cy_ble_ias.c ****         {
 222:Generated_Source\PSoC6\pdl\middleware\ble/cy_ble_ias.c ****             /* Input parameters validation passed, so save Alert Level */
 223:Generated_Source\PSoC6\pdl\middleware\ble/cy_ble_ias.c ****             cy_stc_ble_gatts_db_attr_val_info_t dbAttrValInfo =
  66              		.loc 1 223 0
  67 002a 03AB     		add	r3, sp, #12
  68 002c 07C8     		ldmia	r0, {r0, r1, r2}
  69              	.LVL1:
  70 002e 83E80700 		stmia	r3, {r0, r1, r2}
  71 0032 0022     		movs	r2, #0
  72 0034 ADF81820 		strh	r2, [sp, #24]	@ movhi
  73 0038 A289     		ldrh	r2, [r4, #12]
  74 003a ADF81A20 		strh	r2, [sp, #26]	@ movhi
  75 003e 4022     		movs	r2, #64
  76 0040 8DF81C20 		strb	r2, [sp, #28]
 224:Generated_Source\PSoC6\pdl\middleware\ble/cy_ble_ias.c ****             {
 225:Generated_Source\PSoC6\pdl\middleware\ble/cy_ble_ias.c ****                 .handleValuePair = eventParam->handleValPair,
 226:Generated_Source\PSoC6\pdl\middleware\ble/cy_ble_ias.c ****                 .connHandle      = eventParam->connHandle,
 227:Generated_Source\PSoC6\pdl\middleware\ble/cy_ble_ias.c ****                 .offset          = 0u,
 228:Generated_Source\PSoC6\pdl\middleware\ble/cy_ble_ias.c ****                 .flags           = CY_BLE_GATT_DB_PEER_INITIATED
 229:Generated_Source\PSoC6\pdl\middleware\ble/cy_ble_ias.c ****             };
 230:Generated_Source\PSoC6\pdl\middleware\ble/cy_ble_ias.c ****             if(Cy_BLE_GATTS_WriteAttributeValueCCCD(&dbAttrValInfo) == CY_BLE_GATT_ERR_NONE)
  77              		.loc 1 230 0
  78 0044 1846     		mov	r0, r3
  79 0046 FFF7FEFF 		bl	Cy_BLE_GATTS_WriteAttributeValueCCCD
  80              	.LVL2:
  81 004a 80B9     		cbnz	r0, .L1
  82              	.LBB3:
 231:Generated_Source\PSoC6\pdl\middleware\ble/cy_ble_ias.c ****             {
 232:Generated_Source\PSoC6\pdl\middleware\ble/cy_ble_ias.c ****                 cy_stc_ble_ias_char_value_t wrCmdParam =
  83              		.loc 1 232 0
  84 004c A389     		ldrh	r3, [r4, #12]
  85 004e ADF80430 		strh	r3, [sp, #4]	@ movhi
  86 0052 0023     		movs	r3, #0
  87 0054 8DF80630 		strb	r3, [sp, #6]
  88 0058 0294     		str	r4, [sp, #8]
 233:Generated_Source\PSoC6\pdl\middleware\ble/cy_ble_ias.c ****                 {
 234:Generated_Source\PSoC6\pdl\middleware\ble/cy_ble_ias.c ****                     .connHandle = eventParam->connHandle,
 235:Generated_Source\PSoC6\pdl\middleware\ble/cy_ble_ias.c ****                     .charIndex  = CY_BLE_IAS_ALERT_LEVEL,
 236:Generated_Source\PSoC6\pdl\middleware\ble/cy_ble_ias.c ****                     .value      = &eventParam->handleValPair.value
 237:Generated_Source\PSoC6\pdl\middleware\ble/cy_ble_ias.c ****                 };
 238:Generated_Source\PSoC6\pdl\middleware\ble/cy_ble_ias.c ****                 /* Send callback to user if no error occurred while writing Alert Level */
 239:Generated_Source\PSoC6\pdl\middleware\ble/cy_ble_ias.c ****                 Cy_BLE_IAS_ApplCallback((uint32_t)CY_BLE_EVT_IASS_WRITE_CHAR_CMD, (void*)&wrCmdPara
  89              		.loc 1 239 0
  90 005a 064B     		ldr	r3, .L6
  91 005c 1B68     		ldr	r3, [r3]
  92 005e 01A9     		add	r1, sp, #4
  93 0060 0548     		ldr	r0, .L6+4
  94 0062 9847     		blx	r3
  95              	.LVL3:
 240:Generated_Source\PSoC6\pdl\middleware\ble/cy_ble_ias.c ****                 cy_ble_eventHandlerFlag &= (uint8_t)(~CY_BLE_CALLBACK);
  96              		.loc 1 240 0
  97 0064 054A     		ldr	r2, .L6+8
  98 0066 1378     		ldrb	r3, [r2]	@ zero_extendqisi2
  99 0068 03F0FE03 		and	r3, r3, #254
ARM GAS  C:\Users\Admin\AppData\Local\Temp\ccHULMPJ.s 			page 7


 100 006c 1370     		strb	r3, [r2]
 101              	.L1:
 102              	.LBE3:
 103              	.LBE2:
 241:Generated_Source\PSoC6\pdl\middleware\ble/cy_ble_ias.c ****             }
 242:Generated_Source\PSoC6\pdl\middleware\ble/cy_ble_ias.c ****         }
 243:Generated_Source\PSoC6\pdl\middleware\ble/cy_ble_ias.c ****         /* As this handler handles Write Without Response request the error response
 244:Generated_Source\PSoC6\pdl\middleware\ble/cy_ble_ias.c ****          * can't be sent for the Client. The erroneous value will be with
 245:Generated_Source\PSoC6\pdl\middleware\ble/cy_ble_ias.c ****          * CY_BLE_EVT_GATTS_WRITE_CMD_REQ event. User will decide how to handle it. */
 246:Generated_Source\PSoC6\pdl\middleware\ble/cy_ble_ias.c ****     }
 247:Generated_Source\PSoC6\pdl\middleware\ble/cy_ble_ias.c **** }
 104              		.loc 1 247 0
 105 006e 08B0     		add	sp, sp, #32
 106              		.cfi_def_cfa_offset 8
 107              		@ sp needed
 108 0070 10BD     		pop	{r4, pc}
 109              	.LVL4:
 110              	.L5:
 111              		.cfi_def_cfa_offset 0
 112              		.cfi_restore 4
 113              		.cfi_restore 14
 114 0072 7047     		bx	lr
 115              	.L7:
 116              		.align	2
 117              	.L6:
 118 0074 00000000 		.word	.LANCHOR0
 119 0078 BF000100 		.word	65727
 120 007c 00000000 		.word	cy_ble_eventHandlerFlag
 121              		.cfi_endproc
 122              	.LFE251:
 123              		.size	Cy_BLE_IASS_WriteCmdEventHandler, .-Cy_BLE_IASS_WriteCmdEventHandler
 124              		.section	.text.Cy_BLE_IASS_DisconnectEventHandler,"ax",%progbits
 125              		.align	2
 126              		.thumb
 127              		.thumb_func
 128              		.type	Cy_BLE_IASS_DisconnectEventHandler, %function
 129              	Cy_BLE_IASS_DisconnectEventHandler:
 130              	.LFB250:
 183:Generated_Source\PSoC6\pdl\middleware\ble/cy_ble_ias.c ****     uint8_t tmpAlertLevel = CY_BLE_NO_ALERT;
 131              		.loc 1 183 0
 132              		.cfi_startproc
 133              		@ args = 0, pretend = 0, frame = 24
 134              		@ frame_needed = 0, uses_anonymous_args = 0
 135 0000 00B5     		push	{lr}
 136              		.cfi_def_cfa_offset 4
 137              		.cfi_offset 14, -4
 138 0002 87B0     		sub	sp, sp, #28
 139              		.cfi_def_cfa_offset 32
 184:Generated_Source\PSoC6\pdl\middleware\ble/cy_ble_ias.c **** 
 140              		.loc 1 184 0
 141 0004 0023     		movs	r3, #0
 142 0006 8DF81730 		strb	r3, [sp, #23]
 187:Generated_Source\PSoC6\pdl\middleware\ble/cy_ble_ias.c ****     {
 143              		.loc 1 187 0
 144 000a 0093     		str	r3, [sp]
 145 000c 0193     		str	r3, [sp, #4]
 146 000e 0293     		str	r3, [sp, #8]
ARM GAS  C:\Users\Admin\AppData\Local\Temp\ccHULMPJ.s 			page 8


 147 0010 0393     		str	r3, [sp, #12]
 148 0012 0493     		str	r3, [sp, #16]
 149 0014 0123     		movs	r3, #1
 150 0016 ADF80430 		strh	r3, [sp, #4]	@ movhi
 189:Generated_Source\PSoC6\pdl\middleware\ble/cy_ble_ias.c ****         .handleValuePair.value.len  = CY_BLE_IAS_ALERT_LEVEL_SIZE,
 151              		.loc 1 189 0
 152 001a 074B     		ldr	r3, .L10
 153 001c 5B68     		ldr	r3, [r3, #4]
 154 001e 1B68     		ldr	r3, [r3]
 155 0020 5B88     		ldrh	r3, [r3, #2]
 187:Generated_Source\PSoC6\pdl\middleware\ble/cy_ble_ias.c ****     {
 156              		.loc 1 187 0
 157 0022 ADF80830 		strh	r3, [sp, #8]	@ movhi
 195:Generated_Source\PSoC6\pdl\middleware\ble/cy_ble_ias.c **** 
 158              		.loc 1 195 0
 159 0026 0DF11703 		add	r3, sp, #23
 160 002a 0093     		str	r3, [sp]
 197:Generated_Source\PSoC6\pdl\middleware\ble/cy_ble_ias.c **** }
 161              		.loc 1 197 0
 162 002c 6846     		mov	r0, sp
 163 002e FFF7FEFF 		bl	Cy_BLE_GATTS_WriteAttributeValueCCCD
 164              	.LVL5:
 198:Generated_Source\PSoC6\pdl\middleware\ble/cy_ble_ias.c **** 
 165              		.loc 1 198 0
 166 0032 07B0     		add	sp, sp, #28
 167              		.cfi_def_cfa_offset 4
 168              		@ sp needed
 169 0034 5DF804FB 		ldr	pc, [sp], #4
 170              	.L11:
 171              		.align	2
 172              	.L10:
 173 0038 00000000 		.word	.LANCHOR0
 174              		.cfi_endproc
 175              	.LFE250:
 176              		.size	Cy_BLE_IASS_DisconnectEventHandler, .-Cy_BLE_IASS_DisconnectEventHandler
 177              		.section	.text.Cy_BLE_IAS_EventHandler,"ax",%progbits
 178              		.align	2
 179              		.thumb
 180              		.thumb_func
 181              		.type	Cy_BLE_IAS_EventHandler, %function
 182              	Cy_BLE_IAS_EventHandler:
 183              	.LFB253:
 248:Generated_Source\PSoC6\pdl\middleware\ble/cy_ble_ias.c **** 
 249:Generated_Source\PSoC6\pdl\middleware\ble/cy_ble_ias.c **** 
 250:Generated_Source\PSoC6\pdl\middleware\ble/cy_ble_ias.c **** /******************************************************************************
 251:Generated_Source\PSoC6\pdl\middleware\ble/cy_ble_ias.c **** * Function Name: Cy_BLE_IASS_GetCharacteristicValue
 252:Generated_Source\PSoC6\pdl\middleware\ble/cy_ble_ias.c **** ***************************************************************************//**
 253:Generated_Source\PSoC6\pdl\middleware\ble/cy_ble_ias.c **** *
 254:Generated_Source\PSoC6\pdl\middleware\ble/cy_ble_ias.c **** *  Gets the Alert Level characteristic value of the service, which is identified
 255:Generated_Source\PSoC6\pdl\middleware\ble/cy_ble_ias.c **** *  by charIndex.
 256:Generated_Source\PSoC6\pdl\middleware\ble/cy_ble_ias.c **** *
 257:Generated_Source\PSoC6\pdl\middleware\ble/cy_ble_ias.c **** *  \param charIndex: The index of the Alert Level characteristic.
 258:Generated_Source\PSoC6\pdl\middleware\ble/cy_ble_ias.c **** *  \param attrSize: The size of the Alert Level characteristic value attribute.
 259:Generated_Source\PSoC6\pdl\middleware\ble/cy_ble_ias.c **** *  \param attrValue: The pointer to the location where the Alert Level characteristic
 260:Generated_Source\PSoC6\pdl\middleware\ble/cy_ble_ias.c **** *               value data should be stored.
 261:Generated_Source\PSoC6\pdl\middleware\ble/cy_ble_ias.c **** *
 262:Generated_Source\PSoC6\pdl\middleware\ble/cy_ble_ias.c **** * \return
ARM GAS  C:\Users\Admin\AppData\Local\Temp\ccHULMPJ.s 			page 9


 263:Generated_Source\PSoC6\pdl\middleware\ble/cy_ble_ias.c **** *  A return value of type cy_en_ble_api_result_t.
 264:Generated_Source\PSoC6\pdl\middleware\ble/cy_ble_ias.c **** *   * CY_BLE_SUCCESS - The characteristic value was read successfully
 265:Generated_Source\PSoC6\pdl\middleware\ble/cy_ble_ias.c **** *   * CY_BLE_ERROR_INVALID_PARAMETER - Validation of the input parameters failed
 266:Generated_Source\PSoC6\pdl\middleware\ble/cy_ble_ias.c **** *
 267:Generated_Source\PSoC6\pdl\middleware\ble/cy_ble_ias.c **** ******************************************************************************/
 268:Generated_Source\PSoC6\pdl\middleware\ble/cy_ble_ias.c **** cy_en_ble_api_result_t Cy_BLE_IASS_GetCharacteristicValue(cy_en_ble_ias_char_index_t charIndex,
 269:Generated_Source\PSoC6\pdl\middleware\ble/cy_ble_ias.c ****                                                           uint8_t attrSize,
 270:Generated_Source\PSoC6\pdl\middleware\ble/cy_ble_ias.c ****                                                           uint8_t *attrValue)
 271:Generated_Source\PSoC6\pdl\middleware\ble/cy_ble_ias.c **** {
 272:Generated_Source\PSoC6\pdl\middleware\ble/cy_ble_ias.c ****     cy_en_ble_api_result_t apiResult = CY_BLE_ERROR_INVALID_PARAMETER;
 273:Generated_Source\PSoC6\pdl\middleware\ble/cy_ble_ias.c **** 
 274:Generated_Source\PSoC6\pdl\middleware\ble/cy_ble_ias.c ****     if((attrValue != NULL) && (charIndex == CY_BLE_IAS_ALERT_LEVEL) && (attrSize == CY_BLE_IAS_ALER
 275:Generated_Source\PSoC6\pdl\middleware\ble/cy_ble_ias.c ****     {
 276:Generated_Source\PSoC6\pdl\middleware\ble/cy_ble_ias.c ****         /* Get Alert Level characteristic value from GATT database */
 277:Generated_Source\PSoC6\pdl\middleware\ble/cy_ble_ias.c ****         cy_stc_ble_gatts_db_attr_val_info_t dbAttrValInfo =
 278:Generated_Source\PSoC6\pdl\middleware\ble/cy_ble_ias.c ****         {
 279:Generated_Source\PSoC6\pdl\middleware\ble/cy_ble_ias.c ****             .handleValuePair.attrHandle = cy_ble_iasConfigPtr->iass->alertLevelCharHandle,
 280:Generated_Source\PSoC6\pdl\middleware\ble/cy_ble_ias.c ****             .handleValuePair.value.len  = attrSize,
 281:Generated_Source\PSoC6\pdl\middleware\ble/cy_ble_ias.c ****             .handleValuePair.value.val  = attrValue,
 282:Generated_Source\PSoC6\pdl\middleware\ble/cy_ble_ias.c ****             .flags                      = CY_BLE_GATT_DB_LOCALLY_INITIATED
 283:Generated_Source\PSoC6\pdl\middleware\ble/cy_ble_ias.c ****         };
 284:Generated_Source\PSoC6\pdl\middleware\ble/cy_ble_ias.c ****         if(Cy_BLE_GATTS_ReadAttributeValueCCCD(&dbAttrValInfo) == CY_BLE_GATT_ERR_NONE)
 285:Generated_Source\PSoC6\pdl\middleware\ble/cy_ble_ias.c ****         {
 286:Generated_Source\PSoC6\pdl\middleware\ble/cy_ble_ias.c ****             /* Indicate success */
 287:Generated_Source\PSoC6\pdl\middleware\ble/cy_ble_ias.c ****             apiResult = CY_BLE_SUCCESS;
 288:Generated_Source\PSoC6\pdl\middleware\ble/cy_ble_ias.c ****         }
 289:Generated_Source\PSoC6\pdl\middleware\ble/cy_ble_ias.c ****     }
 290:Generated_Source\PSoC6\pdl\middleware\ble/cy_ble_ias.c **** 
 291:Generated_Source\PSoC6\pdl\middleware\ble/cy_ble_ias.c ****     /* Return status */
 292:Generated_Source\PSoC6\pdl\middleware\ble/cy_ble_ias.c ****     return(apiResult);
 293:Generated_Source\PSoC6\pdl\middleware\ble/cy_ble_ias.c **** }
 294:Generated_Source\PSoC6\pdl\middleware\ble/cy_ble_ias.c **** 
 295:Generated_Source\PSoC6\pdl\middleware\ble/cy_ble_ias.c **** #endif /* (CY_BLE_IAS_SERVER) */
 296:Generated_Source\PSoC6\pdl\middleware\ble/cy_ble_ias.c **** 
 297:Generated_Source\PSoC6\pdl\middleware\ble/cy_ble_ias.c **** 
 298:Generated_Source\PSoC6\pdl\middleware\ble/cy_ble_ias.c **** #ifdef CY_BLE_IAS_CLIENT
 299:Generated_Source\PSoC6\pdl\middleware\ble/cy_ble_ias.c **** 
 300:Generated_Source\PSoC6\pdl\middleware\ble/cy_ble_ias.c **** /******************************************************************************
 301:Generated_Source\PSoC6\pdl\middleware\ble/cy_ble_ias.c **** * Function Name: Cy_BLE_IASC_DiscoverCharacteristicsEventHandler
 302:Generated_Source\PSoC6\pdl\middleware\ble/cy_ble_ias.c **** ***************************************************************************//**
 303:Generated_Source\PSoC6\pdl\middleware\ble/cy_ble_ias.c **** *
 304:Generated_Source\PSoC6\pdl\middleware\ble/cy_ble_ias.c **** *  This function is called on receiving a CY_BLE_EVT_GATTC_READ_BY_TYPE_RSP event.
 305:Generated_Source\PSoC6\pdl\middleware\ble/cy_ble_ias.c **** *  Based on the service UUID, an appropriate data structure is populated using
 306:Generated_Source\PSoC6\pdl\middleware\ble/cy_ble_ias.c **** *  the data received as part of the callback.
 307:Generated_Source\PSoC6\pdl\middleware\ble/cy_ble_ias.c **** *
 308:Generated_Source\PSoC6\pdl\middleware\ble/cy_ble_ias.c **** *  \param discCharInfo: The pointer to a characteristic information structure.
 309:Generated_Source\PSoC6\pdl\middleware\ble/cy_ble_ias.c **** *
 310:Generated_Source\PSoC6\pdl\middleware\ble/cy_ble_ias.c **** ******************************************************************************/
 311:Generated_Source\PSoC6\pdl\middleware\ble/cy_ble_ias.c **** static void Cy_BLE_IASC_DiscoverCharacteristicsEventHandler(cy_stc_ble_disc_char_info_t *discCharIn
 312:Generated_Source\PSoC6\pdl\middleware\ble/cy_ble_ias.c **** {
 313:Generated_Source\PSoC6\pdl\middleware\ble/cy_ble_ias.c ****     uint32_t discIdx = Cy_BLE_GetDiscoveryIdx(discCharInfo->connHandle);
 314:Generated_Source\PSoC6\pdl\middleware\ble/cy_ble_ias.c **** 
 315:Generated_Source\PSoC6\pdl\middleware\ble/cy_ble_ias.c ****     if((discCharInfo->uuidFormat == CY_BLE_GATT_16_BIT_UUID_FORMAT) &&
 316:Generated_Source\PSoC6\pdl\middleware\ble/cy_ble_ias.c ****        (cy_ble_discovery[discIdx].servCount == (uint32_t)CY_BLE_SRVI_IAS))
 317:Generated_Source\PSoC6\pdl\middleware\ble/cy_ble_ias.c ****     {
 318:Generated_Source\PSoC6\pdl\middleware\ble/cy_ble_ias.c ****         if(discCharInfo->uuid.uuid16 == CY_BLE_UUID_CHAR_ALERT_LEVEL)
 319:Generated_Source\PSoC6\pdl\middleware\ble/cy_ble_ias.c ****         {
ARM GAS  C:\Users\Admin\AppData\Local\Temp\ccHULMPJ.s 			page 10


 320:Generated_Source\PSoC6\pdl\middleware\ble/cy_ble_ias.c ****             /* Save Alert Level Characteristic handle */
 321:Generated_Source\PSoC6\pdl\middleware\ble/cy_ble_ias.c ****             Cy_BLE_CheckStoreCharHandle(cy_ble_iasc[discIdx].alertLevelChar);
 322:Generated_Source\PSoC6\pdl\middleware\ble/cy_ble_ias.c ****         }
 323:Generated_Source\PSoC6\pdl\middleware\ble/cy_ble_ias.c **** 
 324:Generated_Source\PSoC6\pdl\middleware\ble/cy_ble_ias.c ****         /* Indicate that request was handled */
 325:Generated_Source\PSoC6\pdl\middleware\ble/cy_ble_ias.c ****         cy_ble_eventHandlerFlag &= (uint8_t) ~CY_BLE_CALLBACK;
 326:Generated_Source\PSoC6\pdl\middleware\ble/cy_ble_ias.c ****     }
 327:Generated_Source\PSoC6\pdl\middleware\ble/cy_ble_ias.c **** }
 328:Generated_Source\PSoC6\pdl\middleware\ble/cy_ble_ias.c **** 
 329:Generated_Source\PSoC6\pdl\middleware\ble/cy_ble_ias.c **** 
 330:Generated_Source\PSoC6\pdl\middleware\ble/cy_ble_ias.c **** /******************************************************************************
 331:Generated_Source\PSoC6\pdl\middleware\ble/cy_ble_ias.c **** * Function Name: Cy_BLE_IASC_GetCharRange
 332:Generated_Source\PSoC6\pdl\middleware\ble/cy_ble_ias.c **** ***************************************************************************//**
 333:Generated_Source\PSoC6\pdl\middleware\ble/cy_ble_ias.c **** *
 334:Generated_Source\PSoC6\pdl\middleware\ble/cy_ble_ias.c **** * Returns a possible range of the current characteristic descriptor via
 335:Generated_Source\PSoC6\pdl\middleware\ble/cy_ble_ias.c **** * input parameter charRangeInfo->range
 336:Generated_Source\PSoC6\pdl\middleware\ble/cy_ble_ias.c **** *
 337:Generated_Source\PSoC6\pdl\middleware\ble/cy_ble_ias.c **** * \param *charRangeInfo: The pointer to a descriptor range information structure.
 338:Generated_Source\PSoC6\pdl\middleware\ble/cy_ble_ias.c **** * \return
 339:Generated_Source\PSoC6\pdl\middleware\ble/cy_ble_ias.c **** *  None.
 340:Generated_Source\PSoC6\pdl\middleware\ble/cy_ble_ias.c **** *
 341:Generated_Source\PSoC6\pdl\middleware\ble/cy_ble_ias.c **** ******************************************************************************/
 342:Generated_Source\PSoC6\pdl\middleware\ble/cy_ble_ias.c **** static void Cy_BLE_IASC_GetCharRange(cy_stc_ble_disc_range_info_t *charRangeInfo)
 343:Generated_Source\PSoC6\pdl\middleware\ble/cy_ble_ias.c **** {
 344:Generated_Source\PSoC6\pdl\middleware\ble/cy_ble_ias.c ****     uint32_t discIdx = Cy_BLE_GetDiscoveryIdx(charRangeInfo->connHandle);
 345:Generated_Source\PSoC6\pdl\middleware\ble/cy_ble_ias.c **** 
 346:Generated_Source\PSoC6\pdl\middleware\ble/cy_ble_ias.c ****     if(cy_ble_discovery[discIdx].servCount == (uint32_t)CY_BLE_SRVI_IAS)
 347:Generated_Source\PSoC6\pdl\middleware\ble/cy_ble_ias.c ****     {
 348:Generated_Source\PSoC6\pdl\middleware\ble/cy_ble_ias.c ****         /* IAS does not have any descriptions, return CY_BLE_GATT_INVALID_ATTR_HANDLE_VALUE to skip
 349:Generated_Source\PSoC6\pdl\middleware\ble/cy_ble_ias.c ****         charRangeInfo->range.startHandle = CY_BLE_GATT_INVALID_ATTR_HANDLE_VALUE;
 350:Generated_Source\PSoC6\pdl\middleware\ble/cy_ble_ias.c ****         charRangeInfo->range.endHandle = CY_BLE_GATT_INVALID_ATTR_HANDLE_VALUE;
 351:Generated_Source\PSoC6\pdl\middleware\ble/cy_ble_ias.c **** 
 352:Generated_Source\PSoC6\pdl\middleware\ble/cy_ble_ias.c ****         /* Indicate that request was handled */
 353:Generated_Source\PSoC6\pdl\middleware\ble/cy_ble_ias.c ****         cy_ble_eventHandlerFlag &= (uint8_t) ~CY_BLE_CALLBACK;
 354:Generated_Source\PSoC6\pdl\middleware\ble/cy_ble_ias.c ****     }
 355:Generated_Source\PSoC6\pdl\middleware\ble/cy_ble_ias.c **** }
 356:Generated_Source\PSoC6\pdl\middleware\ble/cy_ble_ias.c **** 
 357:Generated_Source\PSoC6\pdl\middleware\ble/cy_ble_ias.c **** 
 358:Generated_Source\PSoC6\pdl\middleware\ble/cy_ble_ias.c **** /******************************************************************************
 359:Generated_Source\PSoC6\pdl\middleware\ble/cy_ble_ias.c **** * Function Name: Cy_BLE_IASC_SetCharacteristicValue
 360:Generated_Source\PSoC6\pdl\middleware\ble/cy_ble_ias.c **** ***************************************************************************//**
 361:Generated_Source\PSoC6\pdl\middleware\ble/cy_ble_ias.c **** *
 362:Generated_Source\PSoC6\pdl\middleware\ble/cy_ble_ias.c **** *  This function is used to write the characteristic (which is identified by
 363:Generated_Source\PSoC6\pdl\middleware\ble/cy_ble_ias.c **** *  charIndex) value attribute in the server. As a result a Write Request is
 364:Generated_Source\PSoC6\pdl\middleware\ble/cy_ble_ias.c **** *  sent to the GATT Server and on successful execution of the request on the
 365:Generated_Source\PSoC6\pdl\middleware\ble/cy_ble_ias.c **** *  Server side, the CY_BLE_EVT_IASS_WRITE_CHAR_CMD event is generated.
 366:Generated_Source\PSoC6\pdl\middleware\ble/cy_ble_ias.c **** *
 367:Generated_Source\PSoC6\pdl\middleware\ble/cy_ble_ias.c **** *  \param connHandle: The connection handle.
 368:Generated_Source\PSoC6\pdl\middleware\ble/cy_ble_ias.c **** *  \param charIndex: The index of the Alert Level service characteristic.
 369:Generated_Source\PSoC6\pdl\middleware\ble/cy_ble_ias.c **** *  \param attrSize: The size of the Alert Level characteristic value attribute.
 370:Generated_Source\PSoC6\pdl\middleware\ble/cy_ble_ias.c **** *  \param attrValue: The pointer to the Alert Level characteristic value data that
 371:Generated_Source\PSoC6\pdl\middleware\ble/cy_ble_ias.c **** *               should be sent to the server device.
 372:Generated_Source\PSoC6\pdl\middleware\ble/cy_ble_ias.c **** *
 373:Generated_Source\PSoC6\pdl\middleware\ble/cy_ble_ias.c **** * \return
 374:Generated_Source\PSoC6\pdl\middleware\ble/cy_ble_ias.c **** *  A return value of type cy_en_ble_api_result_t.
 375:Generated_Source\PSoC6\pdl\middleware\ble/cy_ble_ias.c **** *   * CY_BLE_SUCCESS - The request was sent successfully
 376:Generated_Source\PSoC6\pdl\middleware\ble/cy_ble_ias.c **** *   * CY_BLE_ERROR_INVALID_PARAMETER - Validation of the input parameters failed
ARM GAS  C:\Users\Admin\AppData\Local\Temp\ccHULMPJ.s 			page 11


 377:Generated_Source\PSoC6\pdl\middleware\ble/cy_ble_ias.c **** *   * CY_BLE_ERROR_MEMORY_ALLOCATION_FAILED - Memory allocation failed
 378:Generated_Source\PSoC6\pdl\middleware\ble/cy_ble_ias.c **** *   * CY_BLE_ERROR_INVALID_STATE - Connection with the server is not established
 379:Generated_Source\PSoC6\pdl\middleware\ble/cy_ble_ias.c **** *   * CY_BLE_ERROR_INVALID_OPERATION - Operation is invalid for this
 380:Generated_Source\PSoC6\pdl\middleware\ble/cy_ble_ias.c **** *                                     characteristic
 381:Generated_Source\PSoC6\pdl\middleware\ble/cy_ble_ias.c **** *
 382:Generated_Source\PSoC6\pdl\middleware\ble/cy_ble_ias.c **** ******************************************************************************/
 383:Generated_Source\PSoC6\pdl\middleware\ble/cy_ble_ias.c **** cy_en_ble_api_result_t Cy_BLE_IASC_SetCharacteristicValue(cy_stc_ble_conn_handle_t connHandle,
 384:Generated_Source\PSoC6\pdl\middleware\ble/cy_ble_ias.c ****                                                           cy_en_ble_ias_char_index_t charIndex,
 385:Generated_Source\PSoC6\pdl\middleware\ble/cy_ble_ias.c ****                                                           uint8_t attrSize,
 386:Generated_Source\PSoC6\pdl\middleware\ble/cy_ble_ias.c ****                                                           uint8_t *attrValue)
 387:Generated_Source\PSoC6\pdl\middleware\ble/cy_ble_ias.c **** {
 388:Generated_Source\PSoC6\pdl\middleware\ble/cy_ble_ias.c ****     cy_en_ble_api_result_t apiResult = CY_BLE_ERROR_INVALID_PARAMETER;
 389:Generated_Source\PSoC6\pdl\middleware\ble/cy_ble_ias.c ****     uint32_t discIdx = Cy_BLE_GetDiscoveryIdx(connHandle);
 390:Generated_Source\PSoC6\pdl\middleware\ble/cy_ble_ias.c **** 
 391:Generated_Source\PSoC6\pdl\middleware\ble/cy_ble_ias.c ****     if(Cy_BLE_GetConnectionState(connHandle) != CY_BLE_CONN_STATE_CLIENT_DISCOVERED)
 392:Generated_Source\PSoC6\pdl\middleware\ble/cy_ble_ias.c ****     {
 393:Generated_Source\PSoC6\pdl\middleware\ble/cy_ble_ias.c ****         apiResult = CY_BLE_ERROR_INVALID_STATE;
 394:Generated_Source\PSoC6\pdl\middleware\ble/cy_ble_ias.c ****     }
 395:Generated_Source\PSoC6\pdl\middleware\ble/cy_ble_ias.c ****     else if((discIdx < CY_BLE_GATTC_COUNT) && (attrValue != NULL) && 
 396:Generated_Source\PSoC6\pdl\middleware\ble/cy_ble_ias.c ****             (charIndex == CY_BLE_IAS_ALERT_LEVEL) && (attrSize == CY_BLE_IAS_ALERT_LEVEL_SIZE) &&
 397:Generated_Source\PSoC6\pdl\middleware\ble/cy_ble_ias.c ****             (*attrValue <= CY_BLE_HIGH_ALERT) &&
 398:Generated_Source\PSoC6\pdl\middleware\ble/cy_ble_ias.c ****             (cy_ble_iasc[discIdx].alertLevelChar.valueHandle != CY_BLE_GATT_INVALID_ATTR_HANDLE_VAL
 399:Generated_Source\PSoC6\pdl\middleware\ble/cy_ble_ias.c ****     {
 400:Generated_Source\PSoC6\pdl\middleware\ble/cy_ble_ias.c ****         /* Fill all fields of write command request structure ... */
 401:Generated_Source\PSoC6\pdl\middleware\ble/cy_ble_ias.c ****         cy_stc_ble_gattc_write_cmd_req_t wrCmdReq =
 402:Generated_Source\PSoC6\pdl\middleware\ble/cy_ble_ias.c ****         {
 403:Generated_Source\PSoC6\pdl\middleware\ble/cy_ble_ias.c ****             .handleValPair.attrHandle = cy_ble_iasc[discIdx].alertLevelChar.valueHandle,
 404:Generated_Source\PSoC6\pdl\middleware\ble/cy_ble_ias.c ****             .handleValPair.value.val  = attrValue,
 405:Generated_Source\PSoC6\pdl\middleware\ble/cy_ble_ias.c ****             .handleValPair.value.len  = attrSize,
 406:Generated_Source\PSoC6\pdl\middleware\ble/cy_ble_ias.c ****             .connHandle               = connHandle
 407:Generated_Source\PSoC6\pdl\middleware\ble/cy_ble_ias.c ****         };
 408:Generated_Source\PSoC6\pdl\middleware\ble/cy_ble_ias.c ****         /* Send request to write Alert Level characteristic value */
 409:Generated_Source\PSoC6\pdl\middleware\ble/cy_ble_ias.c ****         apiResult = Cy_BLE_GATTC_WriteWithoutResponse(&wrCmdReq);
 410:Generated_Source\PSoC6\pdl\middleware\ble/cy_ble_ias.c ****     }
 411:Generated_Source\PSoC6\pdl\middleware\ble/cy_ble_ias.c ****     else
 412:Generated_Source\PSoC6\pdl\middleware\ble/cy_ble_ias.c ****     {
 413:Generated_Source\PSoC6\pdl\middleware\ble/cy_ble_ias.c ****         /* apiResult equals CY_BLE_ERROR_INVALID_PARAMETER */
 414:Generated_Source\PSoC6\pdl\middleware\ble/cy_ble_ias.c ****     }
 415:Generated_Source\PSoC6\pdl\middleware\ble/cy_ble_ias.c **** 
 416:Generated_Source\PSoC6\pdl\middleware\ble/cy_ble_ias.c ****     /* Return status */
 417:Generated_Source\PSoC6\pdl\middleware\ble/cy_ble_ias.c ****     return(apiResult);
 418:Generated_Source\PSoC6\pdl\middleware\ble/cy_ble_ias.c **** }
 419:Generated_Source\PSoC6\pdl\middleware\ble/cy_ble_ias.c **** 
 420:Generated_Source\PSoC6\pdl\middleware\ble/cy_ble_ias.c **** #endif /* (CY_BLE_IAS_CLIENT) */
 421:Generated_Source\PSoC6\pdl\middleware\ble/cy_ble_ias.c **** 
 422:Generated_Source\PSoC6\pdl\middleware\ble/cy_ble_ias.c **** /******************************************************************************
 423:Generated_Source\PSoC6\pdl\middleware\ble/cy_ble_ias.c **** * Function Name: Cy_BLE_IAS_EventHandler
 424:Generated_Source\PSoC6\pdl\middleware\ble/cy_ble_ias.c **** ***************************************************************************//**
 425:Generated_Source\PSoC6\pdl\middleware\ble/cy_ble_ias.c **** *
 426:Generated_Source\PSoC6\pdl\middleware\ble/cy_ble_ias.c **** *  Handles the events from the BLE Stack for the the Immediate Alert Service.
 427:Generated_Source\PSoC6\pdl\middleware\ble/cy_ble_ias.c **** *
 428:Generated_Source\PSoC6\pdl\middleware\ble/cy_ble_ias.c **** *  \param eventCode:  the event code
 429:Generated_Source\PSoC6\pdl\middleware\ble/cy_ble_ias.c **** *  \param eventParam:  the event parameters
 430:Generated_Source\PSoC6\pdl\middleware\ble/cy_ble_ias.c **** *
 431:Generated_Source\PSoC6\pdl\middleware\ble/cy_ble_ias.c **** * \return
 432:Generated_Source\PSoC6\pdl\middleware\ble/cy_ble_ias.c **** *  A return value of type cy_en_ble_gatt_err_code_t.
 433:Generated_Source\PSoC6\pdl\middleware\ble/cy_ble_ias.c **** *
ARM GAS  C:\Users\Admin\AppData\Local\Temp\ccHULMPJ.s 			page 12


 434:Generated_Source\PSoC6\pdl\middleware\ble/cy_ble_ias.c **** ******************************************************************************/
 435:Generated_Source\PSoC6\pdl\middleware\ble/cy_ble_ias.c **** static cy_en_ble_gatt_err_code_t Cy_BLE_IAS_EventHandler(uint32_t eventCode,
 436:Generated_Source\PSoC6\pdl\middleware\ble/cy_ble_ias.c ****                                                          void *eventParam)
 437:Generated_Source\PSoC6\pdl\middleware\ble/cy_ble_ias.c **** {
 184              		.loc 1 437 0
 185              		.cfi_startproc
 186              		@ args = 0, pretend = 0, frame = 0
 187              		@ frame_needed = 0, uses_anonymous_args = 0
 188              	.LVL6:
 438:Generated_Source\PSoC6\pdl\middleware\ble/cy_ble_ias.c ****     cy_en_ble_gatt_err_code_t gattErr = CY_BLE_GATT_ERR_NONE;
 439:Generated_Source\PSoC6\pdl\middleware\ble/cy_ble_ias.c **** 
 440:Generated_Source\PSoC6\pdl\middleware\ble/cy_ble_ias.c ****     if(eventCode > (uint32_t)CY_BLE_EVT_MAX)
 189              		.loc 1 440 0
 190 0000 B0F5803F 		cmp	r0, #65536
 191 0004 11D2     		bcs	.L17
 437:Generated_Source\PSoC6\pdl\middleware\ble/cy_ble_ias.c ****     cy_en_ble_gatt_err_code_t gattErr = CY_BLE_GATT_ERR_NONE;
 192              		.loc 1 437 0
 193 0006 08B5     		push	{r3, lr}
 194              		.cfi_def_cfa_offset 8
 195              		.cfi_offset 3, -8
 196              		.cfi_offset 14, -4
 441:Generated_Source\PSoC6\pdl\middleware\ble/cy_ble_ias.c ****     {
 442:Generated_Source\PSoC6\pdl\middleware\ble/cy_ble_ias.c ****         /**************************************************************************
 443:Generated_Source\PSoC6\pdl\middleware\ble/cy_ble_ias.c ****          * Handling Service Specific Events
 444:Generated_Source\PSoC6\pdl\middleware\ble/cy_ble_ias.c ****          ***************************************************************************/
 445:Generated_Source\PSoC6\pdl\middleware\ble/cy_ble_ias.c ****         switch((cy_en_ble_evt_t)eventCode)
 446:Generated_Source\PSoC6\pdl\middleware\ble/cy_ble_ias.c ****         {
 447:Generated_Source\PSoC6\pdl\middleware\ble/cy_ble_ias.c ****         #ifdef CY_BLE_IAS_CLIENT
 448:Generated_Source\PSoC6\pdl\middleware\ble/cy_ble_ias.c ****             /* Discovery Events */
 449:Generated_Source\PSoC6\pdl\middleware\ble/cy_ble_ias.c ****             case CY_BLE_EVT_GATTC_DISC_CHAR:
 450:Generated_Source\PSoC6\pdl\middleware\ble/cy_ble_ias.c ****                 Cy_BLE_IASC_DiscoverCharacteristicsEventHandler((cy_stc_ble_disc_char_info_t*)event
 451:Generated_Source\PSoC6\pdl\middleware\ble/cy_ble_ias.c ****                 break;
 452:Generated_Source\PSoC6\pdl\middleware\ble/cy_ble_ias.c **** 
 453:Generated_Source\PSoC6\pdl\middleware\ble/cy_ble_ias.c ****             case CY_BLE_EVT_GATTC_DISC_DESCR_GET_RANGE:
 454:Generated_Source\PSoC6\pdl\middleware\ble/cy_ble_ias.c ****                 Cy_BLE_IASC_GetCharRange((cy_stc_ble_disc_range_info_t*)eventParam);
 455:Generated_Source\PSoC6\pdl\middleware\ble/cy_ble_ias.c ****                 break;
 456:Generated_Source\PSoC6\pdl\middleware\ble/cy_ble_ias.c ****         #endif /* CY_BLE_IAS_CLIENT */
 457:Generated_Source\PSoC6\pdl\middleware\ble/cy_ble_ias.c **** 
 458:Generated_Source\PSoC6\pdl\middleware\ble/cy_ble_ias.c ****             default:
 459:Generated_Source\PSoC6\pdl\middleware\ble/cy_ble_ias.c ****                 break;
 460:Generated_Source\PSoC6\pdl\middleware\ble/cy_ble_ias.c ****         }
 461:Generated_Source\PSoC6\pdl\middleware\ble/cy_ble_ias.c ****     }
 462:Generated_Source\PSoC6\pdl\middleware\ble/cy_ble_ias.c ****     else
 463:Generated_Source\PSoC6\pdl\middleware\ble/cy_ble_ias.c ****     {
 464:Generated_Source\PSoC6\pdl\middleware\ble/cy_ble_ias.c ****         switch((cy_en_ble_event_t)eventCode)
 197              		.loc 1 464 0
 198 0008 83B2     		uxth	r3, r0
 199 000a 45F20202 		movw	r2, #20482
 200 000e 9342     		cmp	r3, r2
 201 0010 07D0     		beq	.L14
 202 0012 45F20E02 		movw	r2, #20494
 203 0016 9342     		cmp	r3, r2
 204 0018 05D1     		bne	.L13
 465:Generated_Source\PSoC6\pdl\middleware\ble/cy_ble_ias.c ****         {
 466:Generated_Source\PSoC6\pdl\middleware\ble/cy_ble_ias.c ****             /**************************************************************************
 467:Generated_Source\PSoC6\pdl\middleware\ble/cy_ble_ias.c ****              * Handling GATT Server Events
 468:Generated_Source\PSoC6\pdl\middleware\ble/cy_ble_ias.c ****              ***************************************************************************/
ARM GAS  C:\Users\Admin\AppData\Local\Temp\ccHULMPJ.s 			page 13


 469:Generated_Source\PSoC6\pdl\middleware\ble/cy_ble_ias.c ****         #ifdef CY_BLE_IAS_SERVER
 470:Generated_Source\PSoC6\pdl\middleware\ble/cy_ble_ias.c ****             case CY_BLE_EVT_GATTS_WRITE_CMD_REQ:
 471:Generated_Source\PSoC6\pdl\middleware\ble/cy_ble_ias.c ****                 Cy_BLE_IASS_WriteCmdEventHandler((cy_stc_ble_gatts_write_cmd_req_param_t*)eventPara
 205              		.loc 1 471 0
 206 001a 0846     		mov	r0, r1
 207              	.LVL7:
 208 001c FFF7FEFF 		bl	Cy_BLE_IASS_WriteCmdEventHandler
 209              	.LVL8:
 472:Generated_Source\PSoC6\pdl\middleware\ble/cy_ble_ias.c ****                 break;
 210              		.loc 1 472 0
 211 0020 01E0     		b	.L13
 212              	.LVL9:
 213              	.L14:
 473:Generated_Source\PSoC6\pdl\middleware\ble/cy_ble_ias.c **** 
 474:Generated_Source\PSoC6\pdl\middleware\ble/cy_ble_ias.c ****             case CY_BLE_EVT_GATT_DISCONNECT_IND:
 475:Generated_Source\PSoC6\pdl\middleware\ble/cy_ble_ias.c ****                 Cy_BLE_IASS_DisconnectEventHandler();
 214              		.loc 1 475 0
 215 0022 FFF7FEFF 		bl	Cy_BLE_IASS_DisconnectEventHandler
 216              	.LVL10:
 217              	.L13:
 476:Generated_Source\PSoC6\pdl\middleware\ble/cy_ble_ias.c ****                 break;
 477:Generated_Source\PSoC6\pdl\middleware\ble/cy_ble_ias.c ****         #endif /* CY_BLE_IAS_SERVER */
 478:Generated_Source\PSoC6\pdl\middleware\ble/cy_ble_ias.c **** 
 479:Generated_Source\PSoC6\pdl\middleware\ble/cy_ble_ias.c ****             /**************************************************************************
 480:Generated_Source\PSoC6\pdl\middleware\ble/cy_ble_ias.c ****              * Handling GATT Client Events
 481:Generated_Source\PSoC6\pdl\middleware\ble/cy_ble_ias.c ****              ***************************************************************************/
 482:Generated_Source\PSoC6\pdl\middleware\ble/cy_ble_ias.c ****         #ifdef CY_BLE_IAS_CLIENT
 483:Generated_Source\PSoC6\pdl\middleware\ble/cy_ble_ias.c ****         #endif /* CY_BLE_IAS_CLIENT */
 484:Generated_Source\PSoC6\pdl\middleware\ble/cy_ble_ias.c ****             default:
 485:Generated_Source\PSoC6\pdl\middleware\ble/cy_ble_ias.c ****                 break;
 486:Generated_Source\PSoC6\pdl\middleware\ble/cy_ble_ias.c ****         }
 487:Generated_Source\PSoC6\pdl\middleware\ble/cy_ble_ias.c ****     }
 488:Generated_Source\PSoC6\pdl\middleware\ble/cy_ble_ias.c **** 
 489:Generated_Source\PSoC6\pdl\middleware\ble/cy_ble_ias.c ****     return(gattErr);
 490:Generated_Source\PSoC6\pdl\middleware\ble/cy_ble_ias.c **** }
 218              		.loc 1 490 0
 219 0026 0020     		movs	r0, #0
 220 0028 08BD     		pop	{r3, pc}
 221              	.LVL11:
 222              	.L17:
 223              		.cfi_def_cfa_offset 0
 224              		.cfi_restore 3
 225              		.cfi_restore 14
 226 002a 0020     		movs	r0, #0
 227              	.LVL12:
 228 002c 7047     		bx	lr
 229              		.cfi_endproc
 230              	.LFE253:
 231              		.size	Cy_BLE_IAS_EventHandler, .-Cy_BLE_IAS_EventHandler
 232 002e 00BF     		.section	.text.Cy_BLE_IAS_Init,"ax",%progbits
 233              		.align	2
 234              		.global	Cy_BLE_IAS_Init
 235              		.thumb
 236              		.thumb_func
 237              		.type	Cy_BLE_IAS_Init, %function
 238              	Cy_BLE_IAS_Init:
 239              	.LFB248:
ARM GAS  C:\Users\Admin\AppData\Local\Temp\ccHULMPJ.s 			page 14


  73:Generated_Source\PSoC6\pdl\middleware\ble/cy_ble_ias.c ****     cy_en_ble_api_result_t apiResult;
 240              		.loc 1 73 0
 241              		.cfi_startproc
 242              		@ args = 0, pretend = 0, frame = 0
 243              		@ frame_needed = 0, uses_anonymous_args = 0
 244              	.LVL13:
  76:Generated_Source\PSoC6\pdl\middleware\ble/cy_ble_ias.c ****     {
 245              		.loc 1 76 0
 246 0000 50B1     		cbz	r0, .L20
  73:Generated_Source\PSoC6\pdl\middleware\ble/cy_ble_ias.c ****     cy_en_ble_api_result_t apiResult;
 247              		.loc 1 73 0
 248 0002 10B5     		push	{r4, lr}
 249              		.cfi_def_cfa_offset 8
 250              		.cfi_offset 4, -8
 251              		.cfi_offset 14, -4
  83:Generated_Source\PSoC6\pdl\middleware\ble/cy_ble_ias.c **** 
 252              		.loc 1 83 0
 253 0004 064C     		ldr	r4, .L23
 254 0006 6060     		str	r0, [r4, #4]
  86:Generated_Source\PSoC6\pdl\middleware\ble/cy_ble_ias.c ****         
 255              		.loc 1 86 0
 256 0008 0648     		ldr	r0, .L23+4
 257              	.LVL14:
 258 000a FFF7FEFF 		bl	Cy_BLE_RegisterServiceEventHandler
 259              	.LVL15:
  90:Generated_Source\PSoC6\pdl\middleware\ble/cy_ble_ias.c ****         {
 260              		.loc 1 90 0
 261 000e 6368     		ldr	r3, [r4, #4]
 262 0010 5B68     		ldr	r3, [r3, #4]
 263 0012 1BB1     		cbz	r3, .L19
  92:Generated_Source\PSoC6\pdl\middleware\ble/cy_ble_ias.c ****         }
 264              		.loc 1 92 0
 265 0014 2360     		str	r3, [r4]
 266 0016 10BD     		pop	{r4, pc}
 267              	.LVL16:
 268              	.L20:
 269              		.cfi_def_cfa_offset 0
 270              		.cfi_restore 4
 271              		.cfi_restore 14
  78:Generated_Source\PSoC6\pdl\middleware\ble/cy_ble_ias.c ****     }
 272              		.loc 1 78 0
 273 0018 0348     		ldr	r0, .L23+8
 274              	.LVL17:
 275 001a 7047     		bx	lr
 276              	.LVL18:
 277              	.L19:
 278              		.cfi_def_cfa_offset 8
 279              		.cfi_offset 4, -8
 280              		.cfi_offset 14, -4
 112:Generated_Source\PSoC6\pdl\middleware\ble/cy_ble_ias.c **** 
 281              		.loc 1 112 0
 282 001c 10BD     		pop	{r4, pc}
 283              	.L24:
 284 001e 00BF     		.align	2
 285              	.L23:
 286 0020 00000000 		.word	.LANCHOR0
 287 0024 00000000 		.word	Cy_BLE_IAS_EventHandler
ARM GAS  C:\Users\Admin\AppData\Local\Temp\ccHULMPJ.s 			page 15


 288 0028 01001600 		.word	1441793
 289              		.cfi_endproc
 290              	.LFE248:
 291              		.size	Cy_BLE_IAS_Init, .-Cy_BLE_IAS_Init
 292              		.section	.text.Cy_BLE_IAS_RegisterAttrCallback,"ax",%progbits
 293              		.align	2
 294              		.global	Cy_BLE_IAS_RegisterAttrCallback
 295              		.thumb
 296              		.thumb_func
 297              		.type	Cy_BLE_IAS_RegisterAttrCallback, %function
 298              	Cy_BLE_IAS_RegisterAttrCallback:
 299              	.LFB249:
 158:Generated_Source\PSoC6\pdl\middleware\ble/cy_ble_ias.c ****     cy_en_ble_api_result_t apiResult = CY_BLE_SUCCESS;
 300              		.loc 1 158 0
 301              		.cfi_startproc
 302              		@ args = 0, pretend = 0, frame = 0
 303              		@ frame_needed = 0, uses_anonymous_args = 0
 304              		@ link register save eliminated.
 305              	.LVL19:
 161:Generated_Source\PSoC6\pdl\middleware\ble/cy_ble_ias.c ****     if(cy_ble_iasConfigPtr != NULL)
 306              		.loc 1 161 0
 307 0000 044B     		ldr	r3, .L28
 308 0002 1860     		str	r0, [r3]
 162:Generated_Source\PSoC6\pdl\middleware\ble/cy_ble_ias.c ****     {
 309              		.loc 1 162 0
 310 0004 5B68     		ldr	r3, [r3, #4]
 311 0006 13B1     		cbz	r3, .L27
 164:Generated_Source\PSoC6\pdl\middleware\ble/cy_ble_ias.c ****     }
 312              		.loc 1 164 0
 313 0008 5860     		str	r0, [r3, #4]
 159:Generated_Source\PSoC6\pdl\middleware\ble/cy_ble_ias.c ****     
 314              		.loc 1 159 0
 315 000a 0020     		movs	r0, #0
 316              	.LVL20:
 317 000c 7047     		bx	lr
 318              	.LVL21:
 319              	.L27:
 168:Generated_Source\PSoC6\pdl\middleware\ble/cy_ble_ias.c ****     }
 320              		.loc 1 168 0
 321 000e 0248     		ldr	r0, .L28+4
 322              	.LVL22:
 172:Generated_Source\PSoC6\pdl\middleware\ble/cy_ble_ias.c **** 
 323              		.loc 1 172 0
 324 0010 7047     		bx	lr
 325              	.L29:
 326 0012 00BF     		.align	2
 327              	.L28:
 328 0014 00000000 		.word	.LANCHOR0
 329 0018 02001600 		.word	1441794
 330              		.cfi_endproc
 331              	.LFE249:
 332              		.size	Cy_BLE_IAS_RegisterAttrCallback, .-Cy_BLE_IAS_RegisterAttrCallback
 333              		.section	.text.Cy_BLE_IASS_GetCharacteristicValue,"ax",%progbits
 334              		.align	2
 335              		.global	Cy_BLE_IASS_GetCharacteristicValue
 336              		.thumb
 337              		.thumb_func
ARM GAS  C:\Users\Admin\AppData\Local\Temp\ccHULMPJ.s 			page 16


 338              		.type	Cy_BLE_IASS_GetCharacteristicValue, %function
 339              	Cy_BLE_IASS_GetCharacteristicValue:
 340              	.LFB252:
 271:Generated_Source\PSoC6\pdl\middleware\ble/cy_ble_ias.c ****     cy_en_ble_api_result_t apiResult = CY_BLE_ERROR_INVALID_PARAMETER;
 341              		.loc 1 271 0
 342              		.cfi_startproc
 343              		@ args = 0, pretend = 0, frame = 24
 344              		@ frame_needed = 0, uses_anonymous_args = 0
 345              	.LVL23:
 274:Generated_Source\PSoC6\pdl\middleware\ble/cy_ble_ias.c ****     {
 346              		.loc 1 274 0
 347 0000 DAB1     		cbz	r2, .L33
 348 0002 1346     		mov	r3, r2
 274:Generated_Source\PSoC6\pdl\middleware\ble/cy_ble_ias.c ****     {
 349              		.loc 1 274 0 is_stmt 0 discriminator 1
 350 0004 D8B9     		cbnz	r0, .L34
 274:Generated_Source\PSoC6\pdl\middleware\ble/cy_ble_ias.c ****     {
 351              		.loc 1 274 0 discriminator 2
 352 0006 0129     		cmp	r1, #1
 353 0008 1BD1     		bne	.L35
 271:Generated_Source\PSoC6\pdl\middleware\ble/cy_ble_ias.c ****     cy_en_ble_api_result_t apiResult = CY_BLE_ERROR_INVALID_PARAMETER;
 354              		.loc 1 271 0 is_stmt 1
 355 000a 00B5     		push	{lr}
 356              		.cfi_def_cfa_offset 4
 357              		.cfi_offset 14, -4
 358 000c 87B0     		sub	sp, sp, #28
 359              		.cfi_def_cfa_offset 32
 360              	.LBB4:
 277:Generated_Source\PSoC6\pdl\middleware\ble/cy_ble_ias.c ****         {
 361              		.loc 1 277 0
 362 000e 0022     		movs	r2, #0
 363              	.LVL24:
 364 0010 0292     		str	r2, [sp, #8]
 365 0012 0392     		str	r2, [sp, #12]
 366 0014 0492     		str	r2, [sp, #16]
 367 0016 0592     		str	r2, [sp, #20]
 368 0018 0193     		str	r3, [sp, #4]
 369 001a ADF80810 		strh	r1, [sp, #8]	@ movhi
 279:Generated_Source\PSoC6\pdl\middleware\ble/cy_ble_ias.c ****             .handleValuePair.value.len  = attrSize,
 370              		.loc 1 279 0
 371 001e 0B4B     		ldr	r3, .L39
 372              	.LVL25:
 373 0020 5B68     		ldr	r3, [r3, #4]
 374 0022 1B68     		ldr	r3, [r3]
 375 0024 5B88     		ldrh	r3, [r3, #2]
 277:Generated_Source\PSoC6\pdl\middleware\ble/cy_ble_ias.c ****         {
 376              		.loc 1 277 0
 377 0026 ADF80C30 		strh	r3, [sp, #12]	@ movhi
 284:Generated_Source\PSoC6\pdl\middleware\ble/cy_ble_ias.c ****         {
 378              		.loc 1 284 0
 379 002a 01A8     		add	r0, sp, #4
 380              	.LVL26:
 381 002c FFF7FEFF 		bl	Cy_BLE_GATTS_ReadAttributeValueCCCD
 382              	.LVL27:
 383 0030 08B1     		cbz	r0, .L36
 384              	.LBE4:
 272:Generated_Source\PSoC6\pdl\middleware\ble/cy_ble_ias.c **** 
ARM GAS  C:\Users\Admin\AppData\Local\Temp\ccHULMPJ.s 			page 17


 385              		.loc 1 272 0
 386 0032 0748     		ldr	r0, .L39+4
 387 0034 07E0     		b	.L31
 388              	.L36:
 389              	.LBB5:
 287:Generated_Source\PSoC6\pdl\middleware\ble/cy_ble_ias.c ****         }
 390              		.loc 1 287 0
 391 0036 0020     		movs	r0, #0
 392              	.LVL28:
 393 0038 05E0     		b	.L31
 394              	.LVL29:
 395              	.L33:
 396              		.cfi_def_cfa_offset 0
 397              		.cfi_restore 14
 398              	.LBE5:
 272:Generated_Source\PSoC6\pdl\middleware\ble/cy_ble_ias.c **** 
 399              		.loc 1 272 0
 400 003a 0548     		ldr	r0, .L39+4
 401              	.LVL30:
 402 003c 7047     		bx	lr
 403              	.LVL31:
 404              	.L34:
 405 003e 0448     		ldr	r0, .L39+4
 406              	.LVL32:
 407 0040 7047     		bx	lr
 408              	.LVL33:
 409              	.L35:
 410 0042 0348     		ldr	r0, .L39+4
 411              	.LVL34:
 412 0044 7047     		bx	lr
 413              	.LVL35:
 414              	.L31:
 415              		.cfi_def_cfa_offset 32
 416              		.cfi_offset 14, -4
 293:Generated_Source\PSoC6\pdl\middleware\ble/cy_ble_ias.c **** 
 417              		.loc 1 293 0
 418 0046 07B0     		add	sp, sp, #28
 419              		.cfi_def_cfa_offset 4
 420              		@ sp needed
 421 0048 5DF804FB 		ldr	pc, [sp], #4
 422              	.L40:
 423              		.align	2
 424              	.L39:
 425 004c 00000000 		.word	.LANCHOR0
 426 0050 01001600 		.word	1441793
 427              		.cfi_endproc
 428              	.LFE252:
 429              		.size	Cy_BLE_IASS_GetCharacteristicValue, .-Cy_BLE_IASS_GetCharacteristicValue
 430              		.global	cy_ble_iasConfigPtr
 431              		.bss
 432              		.align	2
 433              		.set	.LANCHOR0,. + 0
 434              		.type	Cy_BLE_IAS_ApplCallback, %object
 435              		.size	Cy_BLE_IAS_ApplCallback, 4
 436              	Cy_BLE_IAS_ApplCallback:
 437 0000 00000000 		.space	4
 438              		.type	cy_ble_iasConfigPtr, %object
ARM GAS  C:\Users\Admin\AppData\Local\Temp\ccHULMPJ.s 			page 18


 439              		.size	cy_ble_iasConfigPtr, 4
 440              	cy_ble_iasConfigPtr:
 441 0004 00000000 		.space	4
 442              		.text
 443              	.Letext0:
 444              		.file 2 "c:\\program files (x86)\\cypress\\psoc creator\\4.2\\psoc creator\\import\\gnu\\arm\\5.4.
 445              		.file 3 "c:\\program files (x86)\\cypress\\psoc creator\\4.2\\psoc creator\\import\\gnu\\arm\\5.4.
 446              		.file 4 "Generated_Source\\PSoC6\\pdl\\middleware\\ble\\cy_ble_stack.h"
 447              		.file 5 "Generated_Source\\PSoC6\\pdl\\middleware\\ble\\cy_ble_stack_host_main.h"
 448              		.file 6 "Generated_Source\\PSoC6\\pdl\\middleware\\ble\\cy_ble_stack_gatt.h"
 449              		.file 7 "Generated_Source\\PSoC6\\pdl\\middleware\\ble\\cy_ble_gap.h"
 450              		.file 8 "Generated_Source\\PSoC6\\pdl\\middleware\\ble\\cy_ble_stack_gatt_server.h"
 451              		.file 9 "Generated_Source\\PSoC6\\pdl\\middleware\\ble\\cy_ble_stack_gatt_db.h"
 452              		.file 10 "Generated_Source\\PSoC6\\pdl\\middleware\\ble\\cy_ble.h"
 453              		.file 11 "Generated_Source\\PSoC6\\pdl\\middleware\\ble\\cy_ble_ias.h"
 454              		.file 12 "Generated_Source\\PSoC6\\pdl\\middleware\\ble\\cy_ble_event_handler.h"
 455              		.file 13 "Generated_Source\\PSoC6\\pdl\\cmsis/include/core_cm4.h"
 456              		.file 14 "Generated_Source\\PSoC6\\pdl\\middleware\\ble\\cy_ble_gatt.h"