ARM GAS  C:\Users\Admin\AppData\Local\Temp\ccbq628f.s 			page 1


   1              		.syntax unified
   2              		.cpu cortex-m4
   3              		.eabi_attribute 27, 1
   4              		.fpu fpv4-sp-d16
   5              		.eabi_attribute 20, 1
   6              		.eabi_attribute 21, 1
   7              		.eabi_attribute 23, 3
   8              		.eabi_attribute 24, 1
   9              		.eabi_attribute 25, 1
  10              		.eabi_attribute 26, 1
  11              		.eabi_attribute 30, 1
  12              		.eabi_attribute 34, 1
  13              		.eabi_attribute 18, 4
  14              		.thumb
  15              		.syntax unified
  16              		.file	"ias.c"
  17              		.text
  18              	.Ltext0:
  19              		.cfi_sections	.debug_frame
  20              		.section	.text.IasEventHandler,"ax",%progbits
  21              		.align	2
  22              		.global	IasEventHandler
  23              		.thumb
  24              		.thumb_func
  25              		.type	IasEventHandler, %function
  26              	IasEventHandler:
  27              	.LFB480:
  28              		.file 1 "ias.c"
   1:ias.c         **** /*******************************************************************************
   2:ias.c         **** * File Name: ias.c
   3:ias.c         **** *
   4:ias.c         **** *  Version: 1.10
   5:ias.c         **** *
   6:ias.c         **** * Description:
   7:ias.c         **** *  This file contains Immediate Alert Service callback handler function.
   8:ias.c         **** * 
   9:ias.c         **** ********************************************************************************
  10:ias.c         **** * Copyright (2018), Cypress Semiconductor Corporation.  All rights reserved.
  11:ias.c         **** * You may use this file only in accordance with the license, terms, conditions,
  12:ias.c         **** * disclaimers, and limitations in the end user license agreement accompanying
  13:ias.c         **** * the software package with which this file was provided.
  14:ias.c         **** *******************************************************************************/
  15:ias.c         **** 
  16:ias.c         **** #include <project.h>
  17:ias.c         **** #include <stdio.h> 
  18:ias.c         **** #include "ias.h"
  19:ias.c         **** #include "cyfitter.h"
  20:ias.c         **** //#define UART_DEBUG_GET_TX_BUFF_SIZE(...)  (Cy_SCB_GetNumInTxFifo(UART_DEBUG_SCB__HW) + Cy_SCB_Get
  21:ias.c         **** /* IAS alert level value */
  22:ias.c         **** static uint8_t alertLevel = NO_ALERT;
  23:ias.c         **** 
  24:ias.c         **** /******************************************************************************
  25:ias.c         **** * Function Name: IasInit
  26:ias.c         **** *******************************************************************************
  27:ias.c         **** *
  28:ias.c         **** * Summary:
  29:ias.c         **** *   Registers the IAS CallBack.
ARM GAS  C:\Users\Admin\AppData\Local\Temp\ccbq628f.s 			page 2


  30:ias.c         **** *
  31:ias.c         **** ******************************************************************************/
  32:ias.c         **** void IasInit(void)
  33:ias.c         **** {
  34:ias.c         ****     Cy_BLE_IAS_RegisterAttrCallback(IasEventHandler);
  35:ias.c         **** }
  36:ias.c         **** 
  37:ias.c         **** 
  38:ias.c         **** /*******************************************************************************
  39:ias.c         **** * Function Name: IasEventHandler
  40:ias.c         **** ********************************************************************************
  41:ias.c         **** *
  42:ias.c         **** * Summary:
  43:ias.c         **** *  This is an event callback function to receive events from the BLE Component,
  44:ias.c         **** *  which are specific to Immediate Alert Service.
  45:ias.c         **** *
  46:ias.c         **** * Parameters:
  47:ias.c         **** *   event - the event code
  48:ias.c         **** *   *eventParam - the event parameters
  49:ias.c         **** *
  50:ias.c         **** *******************************************************************************/
  51:ias.c         **** 
  52:ias.c         **** void IasEventHandler(uint32_t event, void *eventParam)
  53:ias.c         **** {    
  29              		.loc 1 53 0
  30              		.cfi_startproc
  31              		@ args = 0, pretend = 0, frame = 0
  32              		@ frame_needed = 0, uses_anonymous_args = 0
  33              		@ link register save eliminated.
  34              	.LVL0:
  54:ias.c         ****     /* Alert Level Characteristic write event */
  55:ias.c         ****     if(event == CY_BLE_EVT_IASS_WRITE_CHAR_CMD)
  35              		.loc 1 55 0
  36 0000 044B     		ldr	r3, .L3
  37 0002 9842     		cmp	r0, r3
  38 0004 04D1     		bne	.L1
  56:ias.c         ****     {
  57:ias.c         ****         alertLevel = *((cy_stc_ble_ias_char_value_t *)eventParam)->value->val;   
  39              		.loc 1 57 0
  40 0006 4B68     		ldr	r3, [r1, #4]
  41 0008 1B68     		ldr	r3, [r3]
  42 000a 1A78     		ldrb	r2, [r3]	@ zero_extendqisi2
  43 000c 024B     		ldr	r3, .L3+4
  44 000e 1A70     		strb	r2, [r3]
  45              	.L1:
  46 0010 7047     		bx	lr
  47              	.L4:
  48 0012 00BF     		.align	2
  49              	.L3:
  50 0014 BF000100 		.word	65727
  51 0018 00000000 		.word	.LANCHOR0
  52              		.cfi_endproc
  53              	.LFE480:
  54              		.size	IasEventHandler, .-IasEventHandler
  55              		.section	.text.IasInit,"ax",%progbits
  56              		.align	2
  57              		.global	IasInit
ARM GAS  C:\Users\Admin\AppData\Local\Temp\ccbq628f.s 			page 3


  58              		.thumb
  59              		.thumb_func
  60              		.type	IasInit, %function
  61              	IasInit:
  62              	.LFB479:
  33:ias.c         ****     Cy_BLE_IAS_RegisterAttrCallback(IasEventHandler);
  63              		.loc 1 33 0
  64              		.cfi_startproc
  65              		@ args = 0, pretend = 0, frame = 0
  66              		@ frame_needed = 0, uses_anonymous_args = 0
  67 0000 08B5     		push	{r3, lr}
  68              		.cfi_def_cfa_offset 8
  69              		.cfi_offset 3, -8
  70              		.cfi_offset 14, -4
  34:ias.c         **** }
  71              		.loc 1 34 0
  72 0002 0248     		ldr	r0, .L7
  73 0004 FFF7FEFF 		bl	Cy_BLE_IAS_RegisterAttrCallback
  74              	.LVL1:
  75 0008 08BD     		pop	{r3, pc}
  76              	.L8:
  77 000a 00BF     		.align	2
  78              	.L7:
  79 000c 00000000 		.word	IasEventHandler
  80              		.cfi_endproc
  81              	.LFE479:
  82              		.size	IasInit, .-IasInit
  83              		.section	.text.IasSetAlertLevel,"ax",%progbits
  84              		.align	2
  85              		.global	IasSetAlertLevel
  86              		.thumb
  87              		.thumb_func
  88              		.type	IasSetAlertLevel, %function
  89              	IasSetAlertLevel:
  90              	.LFB481:
  58:ias.c         ****         //Cy_BLE_IASS_GetCharacteristicValue(CY_BLE_IAS_ALERT_LEVEL, sizeof(alertLevel), &alertLeve
  59:ias.c         ****     }  
  60:ias.c         ****     
  61:ias.c         ****     
  62:ias.c         **** }
  63:ias.c         **** 
  64:ias.c         **** 
  65:ias.c         **** /*******************************************************************************
  66:ias.c         **** * Function Name: IasSetAlertLevel
  67:ias.c         **** ********************************************************************************
  68:ias.c         **** *
  69:ias.c         **** * Summary:
  70:ias.c         **** *   This function sets alert level value.
  71:ias.c         **** *
  72:ias.c         **** * Paramerets:
  73:ias.c         **** *  alertLevelValue - Value of alert level.
  74:ias.c         **** *******************************************************************************/
  75:ias.c         **** void IasSetAlertLevel(uint8_t alertLevelValue)
  76:ias.c         **** {
  91              		.loc 1 76 0
  92              		.cfi_startproc
  93              		@ args = 0, pretend = 0, frame = 0
ARM GAS  C:\Users\Admin\AppData\Local\Temp\ccbq628f.s 			page 4


  94              		@ frame_needed = 0, uses_anonymous_args = 0
  95              		@ link register save eliminated.
  96              	.LVL2:
  77:ias.c         ****     alertLevel = alertLevelValue;
  97              		.loc 1 77 0
  98 0000 014B     		ldr	r3, .L10
  99 0002 1870     		strb	r0, [r3]
 100 0004 7047     		bx	lr
 101              	.L11:
 102 0006 00BF     		.align	2
 103              	.L10:
 104 0008 00000000 		.word	.LANCHOR0
 105              		.cfi_endproc
 106              	.LFE481:
 107              		.size	IasSetAlertLevel, .-IasSetAlertLevel
 108              		.section	.text.IasGetAlertLevel,"ax",%progbits
 109              		.align	2
 110              		.global	IasGetAlertLevel
 111              		.thumb
 112              		.thumb_func
 113              		.type	IasGetAlertLevel, %function
 114              	IasGetAlertLevel:
 115              	.LFB482:
  78:ias.c         **** }
  79:ias.c         **** 
  80:ias.c         **** 
  81:ias.c         **** /*******************************************************************************
  82:ias.c         **** * Function Name: IasGetAlertLevel
  83:ias.c         **** ********************************************************************************
  84:ias.c         **** *
  85:ias.c         **** * Summary:
  86:ias.c         **** *   This function returns alert level value.
  87:ias.c         **** *
  88:ias.c         **** * Returns:
  89:ias.c         **** *  uint8_t - alert level value.
  90:ias.c         **** *******************************************************************************/
  91:ias.c         **** uint8_t IasGetAlertLevel(void)
  92:ias.c         **** {
 116              		.loc 1 92 0
 117              		.cfi_startproc
 118              		@ args = 0, pretend = 0, frame = 0
 119              		@ frame_needed = 0, uses_anonymous_args = 0
 120              		@ link register save eliminated.
  93:ias.c         ****     return(alertLevel);
  94:ias.c         **** }
 121              		.loc 1 94 0
 122 0000 014B     		ldr	r3, .L13
 123 0002 1878     		ldrb	r0, [r3]	@ zero_extendqisi2
 124 0004 7047     		bx	lr
 125              	.L14:
 126 0006 00BF     		.align	2
 127              	.L13:
 128 0008 00000000 		.word	.LANCHOR0
 129              		.cfi_endproc
 130              	.LFE482:
 131              		.size	IasGetAlertLevel, .-IasGetAlertLevel
 132              		.bss
ARM GAS  C:\Users\Admin\AppData\Local\Temp\ccbq628f.s 			page 5


 133              		.set	.LANCHOR0,. + 0
 134              		.type	alertLevel, %object
 135              		.size	alertLevel, 1
 136              	alertLevel:
 137 0000 00       		.space	1
 138              		.text
 139              	.Letext0:
 140              		.file 2 "c:\\program files (x86)\\cypress\\psoc creator\\4.2\\psoc creator\\import\\gnu\\arm\\5.4.
 141              		.file 3 "c:\\program files (x86)\\cypress\\psoc creator\\4.2\\psoc creator\\import\\gnu\\arm\\5.4.
 142              		.file 4 "Generated_Source\\PSoC6\\pdl\\drivers/peripheral/scb/cy_scb_uart.h"
 143              		.file 5 "Generated_Source\\PSoC6\\pdl\\middleware/ble/cy_ble_stack_host_main.h"
 144              		.file 6 "Generated_Source\\PSoC6\\pdl\\middleware/ble/cy_ble_stack_gatt.h"
 145              		.file 7 "Generated_Source\\PSoC6\\pdl\\middleware/ble/cy_ble_stack.h"
 146              		.file 8 "Generated_Source\\PSoC6\\pdl\\middleware/ble/cy_ble_gap.h"
 147              		.file 9 "Generated_Source\\PSoC6\\pdl\\middleware/ble/cy_ble_ias.h"
 148              		.file 10 "Generated_Source\\PSoC6\\pdl\\middleware/ble/cy_ble_event_handler.h"
 149              		.file 11 "Generated_Source\\PSoC6\\pdl\\cmsis/include/core_cm4.h"
 150              		.file 12 "Generated_Source\\PSoC6/UART_DEBUG.h"